0041B000 >  30E5            xor ch,ah
0041B002    76 74           jbe short <&KERNEL32.IsDBCSLeadByte>
0041B004 >  60              pushad
0041B005    2077 74         and byte ptr ds:[edi+0x74],dh
0041B008 >  0026            add byte ptr ds:[esi],ah
0041B00A    77 74           ja short <&KERNEL32.GetLocalTime>
0041B00C >  50              push eax
0041B00D    2B77 74         sub esi,dword ptr ds:[edi+0x74]
0041B010 >  E0 E1           loopdne short IPMSG_-_.0041AFF3
0041B012    76 74           jbe short <&KERNEL32.ResumeThread>
0041B014 >  70 E7           jo short IPMSG_-_.0041AFFD
0041B016    76 74           jbe short <&KERNEL32.SuspendThread>
0041B018 >  70 E1           jo short IPMSG_-_.0041AFFB
0041B01A    76 74           jbe short <&KERNEL32.SetFileTime>
0041B01C >  2019            and byte ptr ds:[ecx],bl
0041B01E    76 74           jbe short <&KERNEL32.SetFileAttributesA>
0041B020 >  40              inc eax
0041B021    E0 76           loopdne short IPMSG_-_.0041B099
0041B023    74 10           je short IPMSG_-_.0041B035
0041B025    FA              cli
0041B026    76 74           jbe short <&KERNEL32.GetFileAttributesA>
0041B028 >  B0 FE           mov al,0xFE
0041B02A    76 74           jbe short <&KERNEL32.GetSystemTime>
0041B02C    0000            add byte ptr ds:[eax],al
0041B02E    0000            add byte ptr ds:[eax],al
0041B030 >  50              push eax
0041B031    E3 77           jecxz short IPMSG_-_.0041B0AA
0041B033    73 00           jnb short IPMSG_-_.0041B035
0041B035    107C73 80       adc byte ptr ds:[ebx+esi*2-0x80],bh
0041B039    117C73 E0       adc dword ptr ds:[ebx+esi*2-0x20],edi    ; IPMSG_-_.<ModuleEntryPoint>
0041B03D    0B7C73 00       or edi,dword ptr ds:[ebx+esi*2]
0041B041    0000            add byte ptr ds:[eax],al
0041B043    0010            add byte ptr ds:[eax],dl
0041B045    56              push esi                                 ; IPMSG_-_.<ModuleEntryPoint>
0041B046    59              pop ecx                                  ; kernel32.765E6359
0041B047    76 60           jbe short IPMSG_-_.0041B0A9
0041B049    36:59           pop ecx                                  ; kernel32.765E6359
0041B04B    76 20           jbe short IPMSG_-_.0041B06D
0041B04D    64:59           pop ecx                                  ; kernel32.765E6359
0041B04F    76 00           jbe short IPMSG_-_.0041B051
0041B051    0000            add byte ptr ds:[eax],al
0041B053    0080 A4FA7610   add byte ptr ds:[eax+0x1076FAA4],al
0041B059    3F              aas
0041B05A    5F              pop edi                                  ; kernel32.765E6359
0041B05B    76 50           jbe short IPMSG_-_.0041B0AD
0041B05D    3F              aas
0041B05E    5F              pop edi                                  ; kernel32.765E6359
0041B05F    76 C0           jbe short IPMSG_-_.0041B021
0041B061    3F              aas
0041B062    5F              pop edi                                  ; kernel32.765E6359
0041B063    76 10           jbe short IPMSG_-_.0041B075
0041B065    90              nop
0041B066    5E              pop esi                                  ; kernel32.765E6359
0041B067    76 20           jbe short IPMSG_-_.0041B089
0041B069    5F              pop edi                                  ; kernel32.765E6359
0041B06A    5E              pop esi                                  ; kernel32.765E6359
0041B06B    76 90           jbe short IPMSG_-_.0041AFFD
0041B06D    295F 76         sub dword ptr ds:[edi+0x76],ebx
0041B070 >  A0 775E7670     mov al,byte ptr ds:[0x70765E77]
0041B075    46              inc esi                                  ; IPMSG_-_.<ModuleEntryPoint>
0041B076    5E              pop esi                                  ; kernel32.765E6359
0041B077    76 70           jbe short IPMSG_-_.0041B0E9
0041B079    C15E 76 20      rcr dword ptr ds:[esi+0x76],0x20
0041B07D    99              cdq
0041B07E    5E              pop esi                                  ; kernel32.765E6359
0041B07F    76 A0           jbe short IPMSG_-_.0041B021
0041B081    8A5E 76         mov bl,byte ptr ds:[esi+0x76]
0041B084 >  50              push eax
0041B085    ED              in eax,dx
0041B086    5E              pop esi                                  ; kernel32.765E6359
0041B087    76 10           jbe short IPMSG_-_.0041B099
0041B089    9F              lahf
0041B08A    5E              pop esi                                  ; kernel32.765E6359
0041B08B    76 80           jbe short IPMSG_-_.0041B00D
0041B08D    61              popad
0041B08E    60              pushad
0041B08F    76 E0           jbe short IPMSG_-_.0041B071
0041B091    42              inc edx                                  ; IPMSG_-_.<ModuleEntryPoint>
0041B092    5F              pop edi                                  ; kernel32.765E6359
0041B093    76 90           jbe short IPMSG_-_.0041B025
0041B095    42              inc edx                                  ; IPMSG_-_.<ModuleEntryPoint>
0041B096    5F              pop edi                                  ; kernel32.765E6359
0041B097    76 70           jbe short IPMSG_-_.0041B109
0041B099    3E:5F           pop edi                                  ; kernel32.765E6359
0041B09B    76 80           jbe short IPMSG_-_.0041B01D
0041B09D    40              inc eax
0041B09E    5F              pop edi                                  ; kernel32.765E6359
0041B09F    76 00           jbe short IPMSG_-_.0041B0A1
0041B0A1    9C              pushfd
0041B0A2    5E              pop esi                                  ; kernel32.765E6359
0041B0A3    76 C0           jbe short IPMSG_-_.0041B065
0041B0A5    40              inc eax
0041B0A6    5F              pop edi                                  ; kernel32.765E6359
0041B0A7    76 40           jbe short IPMSG_-_.0041B0E9
0041B0A9    90              nop
0041B0AA    5E              pop esi                                  ; kernel32.765E6359
0041B0AB    76 60           jbe short IPMSG_-_.0041B10D
0041B0AD    7C 5E           jl short IPMSG_-_.0041B10D
0041B0AF    76 60           jbe short IPMSG_-_.0041B111
0041B0B1    9A 5E76008F 5E7>call far 765E:8F00765E
0041B0B8 >  2090 5E76507D   and byte ptr ds:[eax+0x7D50765E],dl
0041B0BE    5E              pop esi                                  ; kernel32.765E6359
0041B0BF    76 00           jbe short IPMSG_-_.0041B0C1
0041B0C1    41              inc ecx                                  ; IPMSG_-_.<ModuleEntryPoint>
0041B0C2    5F              pop edi                                  ; kernel32.765E6359
0041B0C3    76 40           jbe short IPMSG_-_.0041B105
0041B0C5    9C              pushfd
0041B0C6    5E              pop esi                                  ; kernel32.765E6359
0041B0C7    76 A0           jbe short IPMSG_-_.0041B069
0041B0C9    2E:5F           pop edi                                  ; kernel32.765E6359
0041B0CB    76 90           jbe short IPMSG_-_.0041B05D
0041B0CD    A2 5E76A047     mov byte ptr ds:[0x47A0765E],al
0041B0D2    60              pushad
0041B0D3    76 F0           jbe short IPMSG_-_.0041B0C5
0041B0D5    9F              lahf
0041B0D6    5E              pop esi                                  ; kernel32.765E6359
0041B0D7    76 40           jbe short IPMSG_-_.0041B119
0041B0D9    45              inc ebp
0041B0DA    60              pushad
0041B0DB    76 30           jbe short IPMSG_-_.0041B10D
0041B0DD    97              xchg eax,edi                             ; IPMSG_-_.<ModuleEntryPoint>
0041B0DE    5E              pop esi                                  ; kernel32.765E6359
0041B0DF    76 10           jbe short IPMSG_-_.0041B0F1
0041B0E1    6260 76         bound esp,qword ptr ds:[eax+0x76]
0041B0E4 >  C097 5E76E0F3 5>rcl byte ptr ds:[edi-0xC1F89A2],0x5E
0041B0EB    76 30           jbe short IPMSG_-_.0041B11D
0041B0ED    40              inc eax
0041B0EE    5E              pop esi                                  ; kernel32.765E6359
0041B0EF    76 50           jbe short IPMSG_-_.0041B141
0041B0F1    46              inc esi                                  ; IPMSG_-_.<ModuleEntryPoint>
0041B0F2    5E              pop esi                                  ; kernel32.765E6359
0041B0F3    76 F0           jbe short IPMSG_-_.0041B0E5
0041B0F5    3B5F 76         cmp ebx,dword ptr ds:[edi+0x76]          ; <&KERNEL32.GetCommandLineA>
0041B0F8 >  20F4            and ah,dh
0041B0FA    5E              pop esi                                  ; kernel32.765E6359
0041B0FB    76 D0           jbe short IPMSG_-_.0041B0CD
0041B0FD    5E              pop esi                                  ; kernel32.765E6359
0041B0FE    5E              pop esi                                  ; kernel32.765E6359
0041B0FF    76 F0           jbe short IPMSG_-_.0041B0F1
0041B101    5E              pop esi                                  ; kernel32.765E6359
0041B102    5E              pop esi                                  ; kernel32.765E6359
0041B103    76 60           jbe short IPMSG_-_.0041B165
0041B105    99              cdq
0041B106    5E              pop esi                                  ; kernel32.765E6359
0041B107    76 D0           jbe short IPMSG_-_.0041B0D9
0041B109    295F 76         sub dword ptr ds:[edi+0x76],ebx
0041B10C >  80A2 5E760020 5>and byte ptr ds:[edx+0x2000765E],0x5F
0041B113    76 60           jbe short IPMSG_-_.0041B175
0041B115    8F              ???                                      ; 未知命令
0041B116    5E              pop esi                                  ; kernel32.765E6359
0041B117    76 00           jbe short IPMSG_-_.0041B119
0041B119    03F8            add edi,eax
0041B11B    76 70           jbe short IPMSG_-_.0041B18D
0041B11D    1A5E 76         sbb bl,byte ptr ds:[esi+0x76]
0041B120 >  B0 AD           mov al,0xAD
0041B122    F776 D0         div dword ptr ds:[esi-0x30]
0041B125    40              inc eax
0041B126    5F              pop edi                                  ; kernel32.765E6359
0041B127    76 F0           jbe short IPMSG_-_.0041B119
0041B129    7B 5E           jpo short IPMSG_-_.0041B189
0041B12B    76 40           jbe short IPMSG_-_.0041B16D
0041B12D    895E 76         mov dword ptr ds:[esi+0x76],ebx
0041B130 >  70 41           jo short IPMSG_-_.0041B173
0041B132    5E              pop esi                                  ; kernel32.765E6359
0041B133    76 30           jbe short IPMSG_-_.0041B165
0041B135    315F 76         xor dword ptr ds:[edi+0x76],ebx
0041B138 >  E0 97           loopdne short IPMSG_-_.0041B0D1
0041B13A    5E              pop esi                                  ; kernel32.765E6359
0041B13B    76 30           jbe short IPMSG_-_.0041B16D
0041B13D    41              inc ecx                                  ; IPMSG_-_.<ModuleEntryPoint>
0041B13E    5F              pop edi                                  ; kernel32.765E6359
0041B13F    76 A0           jbe short IPMSG_-_.0041B0E1
0041B141    3E:5F           pop edi                                  ; kernel32.765E6359
0041B143    76 C0           jbe short IPMSG_-_.0041B105
0041B145    42              inc edx                                  ; IPMSG_-_.<ModuleEntryPoint>
0041B146    5F              pop edi                                  ; kernel32.765E6359
0041B147    76 20           jbe short IPMSG_-_.0041B169
0041B149    43              inc ebx
0041B14A    5F              pop edi                                  ; kernel32.765E6359
0041B14B    76 10           jbe short IPMSG_-_.0041B15D
0041B14D    47              inc edi                                  ; IPMSG_-_.<ModuleEntryPoint>
0041B14E    60              pushad
0041B14F    76 10           jbe short IPMSG_-_.0041B161
0041B151    2E:5F           pop edi                                  ; kernel32.765E6359
0041B153    76 F0           jbe short IPMSG_-_.0041B145
0041B155    5D              pop ebp                                  ; kernel32.765E6359
0041B156    60              pushad
0041B157    76 60           jbe short IPMSG_-_.0041B1B9
0041B159    40              inc eax
0041B15A    5F              pop edi                                  ; kernel32.765E6359
0041B15B    76 E0           jbe short IPMSG_-_.0041B13D
0041B15D    3C 5F           cmp al,0x5F
0041B15F    76 40           jbe short IPMSG_-_.0041B1A1
0041B161    3E:5F           pop edi                                  ; kernel32.765E6359
0041B163    76 C0           jbe short IPMSG_-_.0041B125
0041B165    3D 5F76503C     cmp eax,0x3C50765F
0041B16A    5F              pop edi                                  ; kernel32.765E6359
0041B16B    76 F0           jbe short IPMSG_-_.0041B15D
0041B16D    58              pop eax                                  ; kernel32.765E6359
0041B16E    5F              pop edi                                  ; kernel32.765E6359
0041B16F    76 00           jbe short IPMSG_-_.0041B171
0041B171    F4              hlt
0041B172    5E              pop esi                                  ; kernel32.765E6359
0041B173    76 B0           jbe short IPMSG_-_.0041B125
0041B175    2C 5F           sub al,0x5F
0041B177    76 80           jbe short IPMSG_-_.0041B0F9
0041B179    2F              das
0041B17A    5F              pop edi                                  ; kernel32.765E6359
0041B17B    76 00           jbe short IPMSG_-_.0041B17D
0041B17D    0000            add byte ptr ds:[eax],al
0041B17F    0060 B5         add byte ptr ds:[eax-0x4B],ah
0041B182    60              pushad
0041B183    75 00           jnz short IPMSG_-_.0041B185
0041B185    3358 75         xor ebx,dword ptr ds:[eax+0x75]
0041B188 >  8050 6B 75      adc byte ptr ds:[eax+0x6B],0x75
0041B18C >  B0 A0           mov al,0xA0
0041B18E    65:75 90        jnz short IPMSG_-_.0041B121
0041B191    BE 62750006     mov esi,0x6007562
0041B196    60              pushad
0041B197    75 00           jnz short IPMSG_-_.0041B199
0041B199    BF 627560A5     mov edi,0xA5607562
0041B19E    68 7570B560     push 0x60B57075
0041B1A3    75 00           jnz short IPMSG_-_.0041B1A5
0041B1A5    0000            add byte ptr ds:[eax],al
0041B1A7    0030            add byte ptr ds:[eax],dh
0041B1A9    AA              stos byte ptr es:[edi]
0041B1AA    BD 7510D3BE     mov ebp,0xBED31075
0041B1AF    75 40           jnz short IPMSG_-_.0041B1F1
0041B1B1    E8 BE75C083     call 84022774
0041B1B6    BD 75E0ABBE     mov ebp,0xBEABE075
0041B1BB    75 10           jnz short IPMSG_-_.0041B1CD
0041B1BD    82FC 76         cmp ah,0x76
0041B1C0 >  D015 BF75C040   rcl byte ptr ds:[0x40C075BF],1
0041B1C6    C175 F0 33      sal dword ptr ss:[ebp-0x10],0x33
0041B1CA    BD 7530AABE     mov ebp,0xBEAA3075
0041B1CF    75 20           jnz short IPMSG_-_.0041B1F1
0041B1D1    70 53           jo short IPMSG_-_.0041B226
0041B1D3    6C              ins byte ptr es:[edi],dx
0041B1D4 >  3006            xor byte ptr ds:[esi],al
0041B1D6    BF 75900CBD     mov edi,0xBD0C9075
0041B1DB    75 60           jnz short IPMSG_-_.0041B23D
0041B1DD    2F              das
0041B1DE    BD 759043C4     mov ebp,0xC4439075
0041B1E3    75 10           jnz short IPMSG_-_.0041B1F5
0041B1E5    00BF 7560E8BE   add byte ptr ds:[edi-0x41179F8B],bh
0041B1EB    75 90           jnz short IPMSG_-_.0041B17D
0041B1ED    48              dec eax
0041B1EE    BF 750094BD     mov edi,0xBD940075
0041B1F3    75 10           jnz short IPMSG_-_.0041B205
0041B1F5    4E              dec esi                                  ; IPMSG_-_.<ModuleEntryPoint>
0041B1F6    BF 754058BF     mov edi,0xBF584075
0041B1FB    75 90           jnz short IPMSG_-_.0041B18D
0041B1FD    5B              pop ebx                                  ; kernel32.765E6359
0041B1FE    BF 75A004BF     mov edi,0xBF04A075
0041B203    75 B0           jnz short IPMSG_-_.0041B1B5
0041B205    23BD 75A099BE   and edi,dword ptr ss:[ebp-0x41665F8B]
0041B20B    75 90           jnz short IPMSG_-_.0041B19D
0041B20D    9B              wait
0041B20E    BE 75E0E9BE     mov esi,0xBEE9E075
0041B213    75 60           jnz short IPMSG_-_.0041B275
0041B215    1C BF           sbb al,0xBF
0041B217    75 90           jnz short IPMSG_-_.0041B1A9
0041B219    46              inc esi                                  ; IPMSG_-_.<ModuleEntryPoint>
0041B21A    C475 F0         les esi,fword ptr ss:[ebp-0x10]
0041B21D    E8 BE7500E5     call E54227E0
0041B222    BE 75100ABE     mov esi,0xBE0A1075
0041B227    75 30           jnz short IPMSG_-_.0041B259
0041B229    7F BE           jg short IPMSG_-_.0041B1E9
0041B22B    75 80           jnz short IPMSG_-_.0041B1AD
0041B22D    7F BE           jg short IPMSG_-_.0041B1ED
0041B22F    75 70           jnz short IPMSG_-_.0041B2A1
0041B231    3ABD 75B0D9BE   cmp bh,byte ptr ss:[ebp-0x41264F8B]
0041B237    75 40           jnz short IPMSG_-_.0041B279
0041B239    F2:             prefix repne:
0041B23A    BE 7560B4BD     mov esi,0xBDB46075
0041B23F    75 10           jnz short IPMSG_-_.0041B251
0041B241    15 BF751053     adc eax,0x531075BF
0041B246    BF 75E0C2BE     mov edi,0xBEC2E075
0041B24B    75 00           jnz short IPMSG_-_.0041B24D
0041B24D    57              push edi                                 ; IPMSG_-_.<ModuleEntryPoint>
0041B24E    BF 75A05CBF     mov edi,0xBF5CA075
0041B253    75 DC           jnz short IPMSG_-_.0041B231
0041B255    44              inc esp
0041B256    BF 7590AABE     mov edi,0xBEAA9075
0041B25B    75 80           jnz short IPMSG_-_.0041B1DD
0041B25D    FC              cld
0041B25E    BD 75A030BD     mov ebp,0xBD30A075
0041B263    75 50           jnz short IPMSG_-_.0041B2B5
0041B265    3BBD 75A0F0BE   cmp edi,dword ptr ss:[ebp-0x410F5F8B]
0041B26B    75 B0           jnz short IPMSG_-_.0041B21D
0041B26D    9C              pushfd
0041B26E    BE 7550A7BD     mov esi,0xBDA75075
0041B273    75 90           jnz short IPMSG_-_.0041B205
0041B275    58              pop eax                                  ; kernel32.765E6359
0041B276    BF 7590F0BD     mov edi,0xBDF09075
0041B27B    75 40           jnz short IPMSG_-_.0041B2BD
0041B27D    28BD 757054BF   sub byte ptr ss:[ebp-0x40AB8F8B],bh
0041B283    75 30           jnz short IPMSG_-_.0041B2B5
0041B285    F6BE 757040BF   idiv byte ptr ds:[esi-0x40BF8F8B]
0041B28B    75 20           jnz short IPMSG_-_.0041B2AD
0041B28D    03BF 75400FC3   add edi,dword ptr ds:[edi-0x3CF0BF8B]
0041B293    75 F0           jnz short IPMSG_-_.0041B285
0041B295    9C              pushfd
0041B296    BE 756060BD     mov esi,0xBD606075
0041B29B    75 D0           jnz short IPMSG_-_.0041B26D
0041B29D    5B              pop ebx                                  ; kernel32.765E6359
0041B29E    BF 75A051BF     mov edi,0xBF51A075
0041B2A3    75 60           jnz short IPMSG_-_.0041B305
0041B2A5    5B              pop ebx                                  ; kernel32.765E6359
0041B2A6    BF 758059BF     mov edi,0xBF598075
0041B2AB    75 A0           jnz short IPMSG_-_.0041B24D
0041B2AD    16              push ss
0041B2AE    BF 75200DBF     mov edi,0xBF0D2075
0041B2B3    75 A0           jnz short IPMSG_-_.0041B255
0041B2B5    E1 BD           loopde short <&USER32.SetCapture>
0041B2B7    75 C0           jnz short IPMSG_-_.0041B279
0041B2B9    43              inc ebx
0041B2BA    BF 7590EBBD     mov edi,0xBDEB9075
0041B2BF    75 C0           jnz short IPMSG_-_.0041B281
0041B2C1    53              push ebx
0041B2C2    BF 7530ADBE     mov edi,0xBEAD3075
0041B2C7    75 C0           jnz short IPMSG_-_.0041B289
0041B2C9    4A              dec edx                                  ; IPMSG_-_.<ModuleEntryPoint>
0041B2CA    BF 75E042C4     mov edi,0xC442E075
0041B2CF    75 70           jnz short IPMSG_-_.0041B341
0041B2D1    44              inc esp
0041B2D2    C475 E0         les esi,fword ptr ss:[ebp-0x20]
0041B2D5    7A BE           jpe short IPMSG_-_.0041B295
0041B2D7    75 10           jnz short IPMSG_-_.0041B2E9
0041B2D9    7A BE           jpe short IPMSG_-_.0041B299
0041B2DB    75 20           jnz short IPMSG_-_.0041B2FD
0041B2DD    17              pop ss
0041B2DE    BF 75804ABF     mov edi,0xBF4A8075
0041B2E3    75 B0           jnz short IPMSG_-_.0041B295
0041B2E5    50              push eax
0041B2E6    BF 75307BBE     mov edi,0xBE7B3075
0041B2EB    75 00           jnz short IPMSG_-_.0041B2ED
0041B2ED    46              inc esi                                  ; IPMSG_-_.<ModuleEntryPoint>
0041B2EE    C475 80         les esi,fword ptr ss:[ebp-0x80]
0041B2F1    18BF 75B0F1C3   sbb byte ptr ds:[edi-0x3C0E4F8B],bh
0041B2F7    75 A0           jnz short IPMSG_-_.0041B299
0041B2F9    EF              out dx,eax
0041B2FA    C2 7520         retn 0x2075
0041B2FD    FE              ???                                      ; 未知命令
0041B2FE    BD 7540D3BE     mov ebp,0xBED34075
0041B303    75 40           jnz short IPMSG_-_.0041B345
0041B305    E7 C3           out 0xC3,eax
0041B307    75 B0           jnz short IPMSG_-_.0041B2B9
0041B309    09BF 75000000   or dword ptr ds:[edi+0x75],edi           ; IPMSG_-_.<ModuleEntryPoint>
0041B30F    00C0            add al,al
0041B311    34 D3           xor al,0xD3
0041B313    73 00           jnb short IPMSG_-_.0041B315
0041B315    0000            add byte ptr ds:[eax],al
0041B317    0040 46         add byte ptr ds:[eax+0x46],al
0041B31A    5C              pop esp                                  ; kernel32.765E6359
0041B31B    00A0 1E6A7040   add byte ptr ds:[eax+0x40706A1E],ah
0041B321    4A              dec edx                                  ; IPMSG_-_.<ModuleEntryPoint>
0041B322    5C              pop esp                                  ; kernel32.765E6359
0041B323    00C0            add al,al
0041B325    48              dec eax
0041B326    5C              pop esp                                  ; kernel32.765E6359
0041B327    0060 50         add byte ptr ds:[eax+0x50],ah
0041B32A    5B              pop ebx                                  ; kernel32.765E6359
0041B32B    00E0            add al,ah
0041B32D    8C5B 00         mov word ptr ds:[ebx],ds
0041B330 >  D0BA 5B0090CD   sar byte ptr ds:[edx-0x326FFFA5],1
0041B336    5B              pop ebx                                  ; kernel32.765E6359
0041B337    0090 A85B00C0   add byte ptr ds:[eax-0x3FFFA458],dl
0041B33D    136A 70         adc ebp,dword ptr ds:[edx+0x70]
0041B340 >  E0 4D           loopdne short IPMSG_-_.0041B38F
0041B342    5C              pop esp                                  ; kernel32.765E6359
0041B343    0060 B9         add byte ptr ds:[eax-0x47],ah
0041B346    5D              pop ebp                                  ; kernel32.765E6359
0041B347    00D0            add al,dl
0041B349    B7 5D           mov bh,0x5D
0041B34B    0030            add byte ptr ds:[eax],dh
0041B34D    5D              pop ebp                                  ; kernel32.765E6359
0041B34E    5C              pop esp                                  ; kernel32.765E6359
0041B34F    00C0            add al,al
0041B351    58              pop eax                                  ; kernel32.765E6359
0041B352    5C              pop esp                                  ; kernel32.765E6359
0041B353    00F0            add al,dh
0041B355    4C              dec esp
0041B356    5C              pop esp                                  ; kernel32.765E6359
0041B357    0040 4B         add byte ptr ds:[eax+0x4B],al
0041B35A    5C              pop esp                                  ; kernel32.765E6359
0041B35B    0030            add byte ptr ds:[eax],dh
0041B35D    1E              push ds
0041B35E    6A 70           push 0x70
0041B360 >  40              inc eax
0041B361    D35B 00         rcr dword ptr ds:[ebx],cl
0041B364 >  60              pushad
0041B365    58              pop eax                                  ; kernel32.765E6359
0041B366    5C              pop esp                                  ; kernel32.765E6359
0041B367    0070 5A         add byte ptr ds:[eax+0x5A],dh
0041B36A    5C              pop esp                                  ; kernel32.765E6359
0041B36B    0050 4C         add byte ptr ds:[eax+0x4C],dl
0041B36E    5C              pop esp                                  ; kernel32.765E6359
0041B36F    0020            add byte ptr ds:[eax],ah
0041B371    46              inc esi                                  ; IPMSG_-_.<ModuleEntryPoint>
0041B372    5C              pop esp                                  ; kernel32.765E6359
0041B373    0000            add byte ptr ds:[eax],al
0041B375    0000            add byte ptr ds:[eax],al
0041B377    0000            add byte ptr ds:[eax],al
0041B379    ED              in eax,dx
0041B37A    BA 766040BB     mov edx,0xBB406076
0041B37F    76 20           jbe short IPMSG_-_.0041B3A1
0041B381    EC              in al,dx
0041B382    BA 76000000     mov edx,0x76
0041B387    00E0            add al,ah
0041B389    4D              dec ebp
0041B38A    6F              outs dx,dword ptr es:[edi]
0041B38B    76 20           jbe short IPMSG_-_.0041B3AD
0041B38D    60              pushad
0041B38E    8C76 00         mov word ptr ds:[esi],seg?               ; 未定义的段寄存器
0041B391    0000            add byte ptr ds:[eax],al
0041B393    0000            add byte ptr ds:[eax],al
0041B395    0000            add byte ptr ds:[eax],al
0041B397    0000            add byte ptr ds:[eax],al
0041B399    6341 00         arpl word ptr ds:[ecx],ax
0041B39C    3C 63           cmp al,0x63
0041B39E    41              inc ecx                                  ; IPMSG_-_.<ModuleEntryPoint>
0041B39F    004D 63         add byte ptr ss:[ebp+0x63],cl
0041B3A2    41              inc ecx                                  ; IPMSG_-_.<ModuleEntryPoint>
0041B3A3    00A0 5C41005C   add byte ptr ds:[eax+0x5C00415C],ah
0041B3A9    3F              aas
0041B3AA    40              inc eax
0041B3AB    0083 3F4000CD   add byte ptr ds:[ebx-0x32FFBFC1],al
0041B3B1    5A              pop edx                                  ; kernel32.765E6359
0041B3B2    41              inc ecx                                  ; IPMSG_-_.<ModuleEntryPoint>
0041B3B3    0010            add byte ptr ds:[eax],dl
0041B3B5    4F              dec edi                                  ; IPMSG_-_.<ModuleEntryPoint>
0041B3B6    41              inc ecx                                  ; IPMSG_-_.<ModuleEntryPoint>
0041B3B7    00B0 68410025   add byte ptr ds:[eax+0x25004168],dh
0041B3BD    68 4100C55E     push 0x5EC50041
0041B3C2    41              inc ecx                                  ; IPMSG_-_.<ModuleEntryPoint>
0041B3C3    00CE            add dh,cl
0041B3C5    42              inc edx                                  ; IPMSG_-_.<ModuleEntryPoint>
0041B3C6    40              inc eax
0041B3C7    00BD 14410023   add byte ptr ss:[ebp+0x23004114],bh
0041B3CD    44              inc esp
0041B3CE    40              inc eax
0041B3CF    00B462 4100B462 add byte ptr ds:[edx+0x62B40041],dh
0041B3D6    41              inc ecx                                  ; IPMSG_-_.<ModuleEntryPoint>
0041B3D7    0005 6D410005   add byte ptr ds:[0x500416D],al
0041B3DD    6D              ins dword ptr es:[edi],dx
0041B3DE    41              inc ecx                                  ; IPMSG_-_.<ModuleEntryPoint>
0041B3DF    00B462 4100B462 add byte ptr ds:[edx+0x62B40041],dh
0041B3E6    41              inc ecx                                  ; IPMSG_-_.<ModuleEntryPoint>
0041B3E7    000F            add byte ptr ds:[edi],cl
0041B3E9    6D              ins dword ptr es:[edi],dx
0041B3EA    41              inc ecx                                  ; IPMSG_-_.<ModuleEntryPoint>
0041B3EB    0058 6C         add byte ptr ds:[eax+0x6C],bl
0041B3EE    41              inc ecx                                  ; IPMSG_-_.<ModuleEntryPoint>
0041B3EF    000F            add byte ptr ds:[edi],cl
0041B3F1    6D              ins dword ptr es:[edi],dx
0041B3F2    41              inc ecx                                  ; IPMSG_-_.<ModuleEntryPoint>
0041B3F3    00BD 14410058   add byte ptr ss:[ebp+0x58004114],bh
0041B3F9    6C              ins byte ptr es:[edi],dx
0041B3FA    41              inc ecx                                  ; IPMSG_-_.<ModuleEntryPoint>
0041B3FB    00BD 144100BD   add byte ptr ss:[ebp-0x42FFBEEC],bh
0041B401    14 41           adc al,0x41
0041B403    00BD 144100BD   add byte ptr ss:[ebp-0x42FFBEEC],bh
0041B409    14 41           adc al,0x41
0041B40B    0058 6C         add byte ptr ds:[eax+0x6C],bl
0041B40E    41              inc ecx                                  ; IPMSG_-_.<ModuleEntryPoint>
0041B40F    000F            add byte ptr ds:[edi],cl
0041B411    6D              ins dword ptr es:[edi],dx
0041B412    41              inc ecx                                  ; IPMSG_-_.<ModuleEntryPoint>
0041B413    00BD 144100BD   add byte ptr ss:[ebp-0x42FFBEEC],bh
0041B419    14 41           adc al,0x41
0041B41B    000F            add byte ptr ds:[edi],cl
0041B41D    6D              ins dword ptr es:[edi],dx
0041B41E    41              inc ecx                                  ; IPMSG_-_.<ModuleEntryPoint>
0041B41F    00146D 4100586C add byte ptr ds:[ebp*2+0x6C580041],dl
0041B426    41              inc ecx                                  ; IPMSG_-_.<ModuleEntryPoint>
0041B427    00146D 4100146D add byte ptr ds:[ebp*2+0x6D140041],dl
0041B42E    41              inc ecx                                  ; IPMSG_-_.<ModuleEntryPoint>
0041B42F    00BD 14410058   add byte ptr ss:[ebp+0x58004114],bh
0041B435    6C              ins byte ptr es:[edi],dx
0041B436    41              inc ecx                                  ; IPMSG_-_.<ModuleEntryPoint>
0041B437    0019            add byte ptr ds:[ecx],bl
0041B439    6D              ins dword ptr es:[edi],dx
0041B43A    41              inc ecx                                  ; IPMSG_-_.<ModuleEntryPoint>
0041B43B    0031            add byte ptr ds:[ecx],dh
0041B43D    6D              ins dword ptr es:[edi],dx
0041B43E    41              inc ecx                                  ; IPMSG_-_.<ModuleEntryPoint>
0041B43F    0045 6D         add byte ptr ss:[ebp+0x6D],al
0041B442    41              inc ecx                                  ; IPMSG_-_.<ModuleEntryPoint>
0041B443    0055 6D         add byte ptr ss:[ebp+0x6D],dl
0041B446    41              inc ecx                                  ; IPMSG_-_.<ModuleEntryPoint>
0041B447    006D 6D         add byte ptr ss:[ebp+0x6D],ch
0041B44A    41              inc ecx                                  ; IPMSG_-_.<ModuleEntryPoint>
0041B44B    00D3            add bl,dl
0041B44D    6D              ins dword ptr es:[edi],dx
0041B44E    41              inc ecx                                  ; IPMSG_-_.<ModuleEntryPoint>
0041B44F    00DD            add ch,bl
0041B451    6D              ins dword ptr es:[edi],dx
0041B452    41              inc ecx                                  ; IPMSG_-_.<ModuleEntryPoint>
0041B453    0077 6D         add byte ptr ds:[edi+0x6D],dh
0041B456    41              inc ecx                                  ; IPMSG_-_.<ModuleEntryPoint>
0041B457    008F 6D4100A7   add byte ptr ds:[edi-0x58FFBE93],cl
0041B45D    6D              ins dword ptr es:[edi],dx
0041B45E    41              inc ecx                                  ; IPMSG_-_.<ModuleEntryPoint>
0041B45F    00C3            add bl,al
0041B461    6D              ins dword ptr es:[edi],dx
0041B462    41              inc ecx                                  ; IPMSG_-_.<ModuleEntryPoint>
0041B463    0069 6E         add byte ptr ds:[ecx+0x6E],ch
0041B466    41              inc ecx                                  ; IPMSG_-_.<ModuleEntryPoint>
0041B467    0073 6E         add byte ptr ds:[ebx+0x6E],dh
0041B46A    41              inc ecx                                  ; IPMSG_-_.<ModuleEntryPoint>
0041B46B    0083 6E410097   add byte ptr ds:[ebx-0x68FFBE92],al
0041B471    6E              outs dx,byte ptr es:[edi]
0041B472    41              inc ecx                                  ; IPMSG_-_.<ModuleEntryPoint>
0041B473    00AB 6E4100BB   add byte ptr ds:[ebx-0x44FFBE92],ch
0041B479    6E              outs dx,byte ptr es:[edi]
0041B47A    41              inc ecx                                  ; IPMSG_-_.<ModuleEntryPoint>
0041B47B    00CA            add dl,cl
0041B47D    42              inc edx                                  ; IPMSG_-_.<ModuleEntryPoint>
0041B47E    40              inc eax
0041B47F    00CB            add bl,cl
0041B481    6E              outs dx,byte ptr es:[edi]
0041B482    41              inc ecx                                  ; IPMSG_-_.<ModuleEntryPoint>
0041B483    005D 6C         add byte ptr ss:[ebp+0x6C],bl
0041B486    41              inc ecx                                  ; IPMSG_-_.<ModuleEntryPoint>
0041B487    00EA            add dl,ch
0041B489    6E              outs dx,byte ptr es:[edi]
0041B48A    41              inc ecx                                  ; IPMSG_-_.<ModuleEntryPoint>
0041B48B    004B 62         add byte ptr ds:[ebx+0x62],cl
0041B48E    41              inc ecx                                  ; IPMSG_-_.<ModuleEntryPoint>
0041B48F    00D0            add al,dl
0041B491    5E              pop esi                                  ; kernel32.765E6359
0041B492    41              inc ecx                                  ; IPMSG_-_.<ModuleEntryPoint>
0041B493    00246C          add byte ptr ss:[esp+ebp*2],ah
0041B496    41              inc ecx                                  ; IPMSG_-_.<ModuleEntryPoint>
0041B497    0028            add byte ptr ds:[eax],ch
0041B499    5E              pop esi                                  ; kernel32.765E6359
0041B49A    41              inc ecx                                  ; IPMSG_-_.<ModuleEntryPoint>
0041B49B    0081 5E4100BD   add byte ptr ds:[ecx-0x42FFBEA2],al
0041B4A1    6241 00         bound eax,qword ptr ds:[ecx]
0041B4A4    C04E 40 00      ror byte ptr ds:[esi+0x40],0x0
0041B4A8    B0 68           mov al,0x68
0041B4AA    41              inc ecx                                  ; IPMSG_-_.<ModuleEntryPoint>
0041B4AB    0025 68410091   add byte ptr ds:[0x91004168],ah
0041B4B1    68 4100B852     push 0x52B80041
0041B4B6    40              inc eax
0041B4B7    003A            add byte ptr ds:[edx],bh
0041B4B9    54              push esp
0041B4BA    40              inc eax
0041B4BB    0001            add byte ptr ds:[ecx],al
0041B4BD    50              push eax
0041B4BE    40              inc eax
0041B4BF    00F6            add dh,dh
0041B4C1    50              push eax
0041B4C2    40              inc eax
0041B4C3    00B462 4100056D add byte ptr ds:[edx+0x6D050041],dh
0041B4CA    41              inc ecx                                  ; IPMSG_-_.<ModuleEntryPoint>
0041B4CB    00DB            add bl,bl
0041B4CD    54              push esp
0041B4CE    40              inc eax
0041B4CF    00ED            add ch,ch
0041B4D1    54              push esp
0041B4D2    40              inc eax
0041B4D3    00B462 41000F6D add byte ptr ds:[edx+0x6D0F0041],dh
0041B4DA    41              inc ecx                                  ; IPMSG_-_.<ModuleEntryPoint>
0041B4DB    0058 6C         add byte ptr ds:[eax+0x6C],bl
0041B4DE    41              inc ecx                                  ; IPMSG_-_.<ModuleEntryPoint>
0041B4DF    000F            add byte ptr ds:[edi],cl
0041B4E1    6D              ins dword ptr es:[edi],dx
0041B4E2    41              inc ecx                                  ; IPMSG_-_.<ModuleEntryPoint>
0041B4E3    0007            add byte ptr ds:[edi],al
0041B4E5    51              push ecx                                 ; IPMSG_-_.<ModuleEntryPoint>
0041B4E6    40              inc eax
0041B4E7    0058 6C         add byte ptr ds:[eax+0x6C],bl
0041B4EA    41              inc ecx                                  ; IPMSG_-_.<ModuleEntryPoint>
0041B4EB    00BD 144100BD   add byte ptr ss:[ebp-0x42FFBEEC],bh
0041B4F1    14 41           adc al,0x41
0041B4F3    00BD 144100BD   add byte ptr ss:[ebp-0x42FFBEEC],bh
0041B4F9    14 41           adc al,0x41
0041B4FB    0058 6C         add byte ptr ds:[eax+0x6C],bl
0041B4FE    41              inc ecx                                  ; IPMSG_-_.<ModuleEntryPoint>
0041B4FF    000F            add byte ptr ds:[edi],cl
0041B501    6D              ins dword ptr es:[edi],dx
0041B502    41              inc ecx                                  ; IPMSG_-_.<ModuleEntryPoint>
0041B503    00BD 144100BD   add byte ptr ss:[ebp-0x42FFBEEC],bh
0041B509    14 41           adc al,0x41
0041B50B    000A            add byte ptr ds:[edx],cl
0041B50D    55              push ebp
0041B50E    40              inc eax
0041B50F    00146D 41003955 add byte ptr ds:[ebp*2+0x55390041],dl
0041B516    40              inc eax
0041B517    008A 56400014   add byte ptr ds:[edx+0x14004056],cl
0041B51D    6D              ins dword ptr es:[edi],dx
0041B51E    41              inc ecx                                  ; IPMSG_-_.<ModuleEntryPoint>
0041B51F    00BD 144100BB   add byte ptr ss:[ebp-0x44FFBEEC],bh
0041B525    58              pop eax                                  ; kernel32.765E6359
0041B526    40              inc eax
0041B527    0019            add byte ptr ds:[ecx],bl
0041B529    6D              ins dword ptr es:[edi],dx
0041B52A    41              inc ecx                                  ; IPMSG_-_.<ModuleEntryPoint>
0041B52B    0031            add byte ptr ds:[ecx],dh
0041B52D    6D              ins dword ptr es:[edi],dx
0041B52E    41              inc ecx                                  ; IPMSG_-_.<ModuleEntryPoint>
0041B52F    0045 6D         add byte ptr ss:[ebp+0x6D],al
0041B532    41              inc ecx                                  ; IPMSG_-_.<ModuleEntryPoint>
0041B533    0055 6D         add byte ptr ss:[ebp+0x6D],dl
0041B536    41              inc ecx                                  ; IPMSG_-_.<ModuleEntryPoint>
0041B537    006D 6D         add byte ptr ss:[ebp+0x6D],ch
0041B53A    41              inc ecx                                  ; IPMSG_-_.<ModuleEntryPoint>
0041B53B    00D3            add bl,dl
0041B53D    6D              ins dword ptr es:[edi],dx
0041B53E    41              inc ecx                                  ; IPMSG_-_.<ModuleEntryPoint>
0041B53F    00DD            add ch,bl
0041B541    6D              ins dword ptr es:[edi],dx
0041B542    41              inc ecx                                  ; IPMSG_-_.<ModuleEntryPoint>
0041B543    0077 6D         add byte ptr ds:[edi+0x6D],dh
0041B546    41              inc ecx                                  ; IPMSG_-_.<ModuleEntryPoint>
0041B547    008F 6D4100A7   add byte ptr ds:[edi-0x58FFBE93],cl
0041B54D    6D              ins dword ptr es:[edi],dx
0041B54E    41              inc ecx                                  ; IPMSG_-_.<ModuleEntryPoint>
0041B54F    00C3            add bl,al
0041B551    6D              ins dword ptr es:[edi],dx
0041B552    41              inc ecx                                  ; IPMSG_-_.<ModuleEntryPoint>
0041B553    0069 6E         add byte ptr ds:[ecx+0x6E],ch
0041B556    41              inc ecx                                  ; IPMSG_-_.<ModuleEntryPoint>
0041B557    0073 6E         add byte ptr ds:[ebx+0x6E],dh
0041B55A    41              inc ecx                                  ; IPMSG_-_.<ModuleEntryPoint>
0041B55B    0083 6E410097   add byte ptr ds:[ebx-0x68FFBE92],al
0041B561    6E              outs dx,byte ptr es:[edi]
0041B562    41              inc ecx                                  ; IPMSG_-_.<ModuleEntryPoint>
0041B563    00AB 6E4100BB   add byte ptr ds:[ebx-0x44FFBE92],ch
0041B569    6E              outs dx,byte ptr es:[edi]
0041B56A    41              inc ecx                                  ; IPMSG_-_.<ModuleEntryPoint>
0041B56B    00CA            add dl,cl
0041B56D    42              inc edx                                  ; IPMSG_-_.<ModuleEntryPoint>
0041B56E    40              inc eax
0041B56F    00CB            add bl,cl
0041B571    6E              outs dx,byte ptr es:[edi]
0041B572    41              inc ecx                                  ; IPMSG_-_.<ModuleEntryPoint>
0041B573    005D 6C         add byte ptr ss:[ebp+0x6C],bl
0041B576    41              inc ecx                                  ; IPMSG_-_.<ModuleEntryPoint>
0041B577    00EA            add dl,ch
0041B579    6E              outs dx,byte ptr es:[edi]
0041B57A    41              inc ecx                                  ; IPMSG_-_.<ModuleEntryPoint>
0041B57B    003C6C          add byte ptr ss:[esp+ebp*2],bh
0041B57E    41              inc ecx                                  ; IPMSG_-_.<ModuleEntryPoint>
0041B57F    00CD            add ch,cl
0041B581    68 4100246C     push 0x6C240041
0041B586    41              inc ecx                                  ; IPMSG_-_.<ModuleEntryPoint>
0041B587    000F            add byte ptr ds:[edi],cl
0041B589    99              cdq
0041B58A    40              inc eax
0041B58B    00B0 68410025   add byte ptr ds:[eax+0x25004168],dh
0041B591    68 4100C55E     push 0x5EC50041
0041B596    41              inc ecx                                  ; IPMSG_-_.<ModuleEntryPoint>
0041B597    003F            add byte ptr ds:[edi],bh
0041B599    9A 4000BD14 410>call far 0041:14BD0040
0041B5A0    93              xchg eax,ebx
0041B5A1    9A 4000B462 410>call far 0041:62B40040
0041B5A8    B4 62           mov ah,0x62
0041B5AA    41              inc ecx                                  ; IPMSG_-_.<ModuleEntryPoint>
0041B5AB    0005 6D410005   add byte ptr ds:[0x500416D],al
0041B5B1    6D              ins dword ptr es:[edi],dx
0041B5B2    41              inc ecx                                  ; IPMSG_-_.<ModuleEntryPoint>
0041B5B3    00B462 4100B462 add byte ptr ds:[edx+0x62B40041],dh
0041B5BA    41              inc ecx                                  ; IPMSG_-_.<ModuleEntryPoint>
0041B5BB    000F            add byte ptr ds:[edi],cl
0041B5BD    6D              ins dword ptr es:[edi],dx
0041B5BE    41              inc ecx                                  ; IPMSG_-_.<ModuleEntryPoint>
0041B5BF    0058 6C         add byte ptr ds:[eax+0x6C],bl
0041B5C2    41              inc ecx                                  ; IPMSG_-_.<ModuleEntryPoint>
0041B5C3    000F            add byte ptr ds:[edi],cl
0041B5C5    6D              ins dword ptr es:[edi],dx
0041B5C6    41              inc ecx                                  ; IPMSG_-_.<ModuleEntryPoint>
0041B5C7    00BD 14410058   add byte ptr ss:[ebp+0x58004114],bh
0041B5CD    6C              ins byte ptr es:[edi],dx
0041B5CE    41              inc ecx                                  ; IPMSG_-_.<ModuleEntryPoint>
0041B5CF    00BD 144100BD   add byte ptr ss:[ebp-0x42FFBEEC],bh
0041B5D5    14 41           adc al,0x41
0041B5D7    00BD 144100BD   add byte ptr ss:[ebp-0x42FFBEEC],bh
0041B5DD    14 41           adc al,0x41
0041B5DF    0058 6C         add byte ptr ds:[eax+0x6C],bl
0041B5E2    41              inc ecx                                  ; IPMSG_-_.<ModuleEntryPoint>
0041B5E3    000F            add byte ptr ds:[edi],cl
0041B5E5    6D              ins dword ptr es:[edi],dx
0041B5E6    41              inc ecx                                  ; IPMSG_-_.<ModuleEntryPoint>
0041B5E7    00BD 144100BD   add byte ptr ss:[ebp-0x42FFBEEC],bh
0041B5ED    14 41           adc al,0x41
0041B5EF    000F            add byte ptr ds:[edi],cl
0041B5F1    6D              ins dword ptr es:[edi],dx
0041B5F2    41              inc ecx                                  ; IPMSG_-_.<ModuleEntryPoint>
0041B5F3    00146D 4100586C add byte ptr ds:[ebp*2+0x6C580041],dl
0041B5FA    41              inc ecx                                  ; IPMSG_-_.<ModuleEntryPoint>
0041B5FB    00146D 4100146D add byte ptr ds:[ebp*2+0x6D140041],dl
0041B602    41              inc ecx                                  ; IPMSG_-_.<ModuleEntryPoint>
0041B603    00BD 14410058   add byte ptr ss:[ebp+0x58004114],bh
0041B609    6C              ins byte ptr es:[edi],dx
0041B60A    41              inc ecx                                  ; IPMSG_-_.<ModuleEntryPoint>
0041B60B    0019            add byte ptr ds:[ecx],bl
0041B60D    6D              ins dword ptr es:[edi],dx
0041B60E    41              inc ecx                                  ; IPMSG_-_.<ModuleEntryPoint>
0041B60F    0031            add byte ptr ds:[ecx],dh
0041B611    6D              ins dword ptr es:[edi],dx
0041B612    41              inc ecx                                  ; IPMSG_-_.<ModuleEntryPoint>
0041B613    0045 6D         add byte ptr ss:[ebp+0x6D],al
0041B616    41              inc ecx                                  ; IPMSG_-_.<ModuleEntryPoint>
0041B617    0055 6D         add byte ptr ss:[ebp+0x6D],dl
0041B61A    41              inc ecx                                  ; IPMSG_-_.<ModuleEntryPoint>
0041B61B    006D 6D         add byte ptr ss:[ebp+0x6D],ch
0041B61E    41              inc ecx                                  ; IPMSG_-_.<ModuleEntryPoint>
0041B61F    00D3            add bl,dl
0041B621    6D              ins dword ptr es:[edi],dx
0041B622    41              inc ecx                                  ; IPMSG_-_.<ModuleEntryPoint>
0041B623    00DD            add ch,bl
0041B625    6D              ins dword ptr es:[edi],dx
0041B626    41              inc ecx                                  ; IPMSG_-_.<ModuleEntryPoint>
0041B627    0077 6D         add byte ptr ds:[edi+0x6D],dh
0041B62A    41              inc ecx                                  ; IPMSG_-_.<ModuleEntryPoint>
0041B62B    008F 6D4100A7   add byte ptr ds:[edi-0x58FFBE93],cl
0041B631    6D              ins dword ptr es:[edi],dx
0041B632    41              inc ecx                                  ; IPMSG_-_.<ModuleEntryPoint>
0041B633    00C3            add bl,al
0041B635    6D              ins dword ptr es:[edi],dx
0041B636    41              inc ecx                                  ; IPMSG_-_.<ModuleEntryPoint>
0041B637    0069 6E         add byte ptr ds:[ecx+0x6E],ch
0041B63A    41              inc ecx                                  ; IPMSG_-_.<ModuleEntryPoint>
0041B63B    0073 6E         add byte ptr ds:[ebx+0x6E],dh
0041B63E    41              inc ecx                                  ; IPMSG_-_.<ModuleEntryPoint>
0041B63F    0083 6E410097   add byte ptr ds:[ebx-0x68FFBE92],al
0041B645    6E              outs dx,byte ptr es:[edi]
0041B646    41              inc ecx                                  ; IPMSG_-_.<ModuleEntryPoint>
0041B647    00AB 6E4100BB   add byte ptr ds:[ebx-0x44FFBE92],ch
0041B64D    6E              outs dx,byte ptr es:[edi]
0041B64E    41              inc ecx                                  ; IPMSG_-_.<ModuleEntryPoint>
0041B64F    00CA            add dl,cl
0041B651    42              inc edx                                  ; IPMSG_-_.<ModuleEntryPoint>
0041B652    40              inc eax
0041B653    00CB            add bl,cl
0041B655    6E              outs dx,byte ptr es:[edi]
0041B656    41              inc ecx                                  ; IPMSG_-_.<ModuleEntryPoint>
0041B657    005D 6C         add byte ptr ss:[ebp+0x6C],bl
0041B65A    41              inc ecx                                  ; IPMSG_-_.<ModuleEntryPoint>
0041B65B    00EA            add dl,ch
0041B65D    6E              outs dx,byte ptr es:[edi]
0041B65E    41              inc ecx                                  ; IPMSG_-_.<ModuleEntryPoint>
0041B65F    004B 62         add byte ptr ds:[ebx+0x62],cl
0041B662    41              inc ecx                                  ; IPMSG_-_.<ModuleEntryPoint>
0041B663    00D0            add al,dl
0041B665    5E              pop esi                                  ; kernel32.765E6359
0041B666    41              inc ecx                                  ; IPMSG_-_.<ModuleEntryPoint>
0041B667    00246C          add byte ptr ss:[esp+ebp*2],ah
0041B66A    41              inc ecx                                  ; IPMSG_-_.<ModuleEntryPoint>
0041B66B    0028            add byte ptr ds:[eax],ch
0041B66D    5E              pop esi                                  ; kernel32.765E6359
0041B66E    41              inc ecx                                  ; IPMSG_-_.<ModuleEntryPoint>
0041B66F    0081 5E4100BD   add byte ptr ds:[ecx-0x42FFBEA2],al
0041B675    6241 00         bound eax,qword ptr ds:[ecx]
0041B678    3C 99           cmp al,0x99
0041B67A    40              inc eax
0041B67B    0010            add byte ptr ds:[eax],dl
0041B67D    4F              dec edi                                  ; IPMSG_-_.<ModuleEntryPoint>
0041B67E    41              inc ecx                                  ; IPMSG_-_.<ModuleEntryPoint>
0041B67F    00B0 68410025   add byte ptr ds:[eax+0x25004168],dh
0041B685    68 4100C55E     push 0x5EC50041
0041B68A    41              inc ecx                                  ; IPMSG_-_.<ModuleEntryPoint>
0041B68B    004C9C 40       add byte ptr ss:[esp+ebx*4+0x40],cl
0041B68F    00BD 14410085   add byte ptr ss:[ebp-0x7AFFBEEC],bh
0041B695    9B              wait
0041B696    40              inc eax
0041B697    00B462 4100B462 add byte ptr ds:[edx+0x62B40041],dh
0041B69E    41              inc ecx                                  ; IPMSG_-_.<ModuleEntryPoint>
0041B69F    0005 6D410005   add byte ptr ds:[0x500416D],al
0041B6A5    6D              ins dword ptr es:[edi],dx
0041B6A6    41              inc ecx                                  ; IPMSG_-_.<ModuleEntryPoint>
0041B6A7    00B462 4100B462 add byte ptr ds:[edx+0x62B40041],dh
0041B6AE    41              inc ecx                                  ; IPMSG_-_.<ModuleEntryPoint>
0041B6AF    000F            add byte ptr ds:[edi],cl
0041B6B1    6D              ins dword ptr es:[edi],dx
0041B6B2    41              inc ecx                                  ; IPMSG_-_.<ModuleEntryPoint>
0041B6B3    0058 6C         add byte ptr ds:[eax+0x6C],bl
0041B6B6    41              inc ecx                                  ; IPMSG_-_.<ModuleEntryPoint>
0041B6B7    000F            add byte ptr ds:[edi],cl
0041B6B9    6D              ins dword ptr es:[edi],dx
0041B6BA    41              inc ecx                                  ; IPMSG_-_.<ModuleEntryPoint>
0041B6BB    00BD 14410058   add byte ptr ss:[ebp+0x58004114],bh
0041B6C1    6C              ins byte ptr es:[edi],dx
0041B6C2    41              inc ecx                                  ; IPMSG_-_.<ModuleEntryPoint>
0041B6C3    00BD 144100BD   add byte ptr ss:[ebp-0x42FFBEEC],bh
0041B6C9    14 41           adc al,0x41
0041B6CB    00BD 144100BD   add byte ptr ss:[ebp-0x42FFBEEC],bh
0041B6D1    14 41           adc al,0x41
0041B6D3    0058 6C         add byte ptr ds:[eax+0x6C],bl
0041B6D6    41              inc ecx                                  ; IPMSG_-_.<ModuleEntryPoint>
0041B6D7    000F            add byte ptr ds:[edi],cl
0041B6D9    6D              ins dword ptr es:[edi],dx
0041B6DA    41              inc ecx                                  ; IPMSG_-_.<ModuleEntryPoint>
0041B6DB    00BD 144100BD   add byte ptr ss:[ebp-0x42FFBEEC],bh
0041B6E1    14 41           adc al,0x41
0041B6E3    000F            add byte ptr ds:[edi],cl
0041B6E5    6D              ins dword ptr es:[edi],dx
0041B6E6    41              inc ecx                                  ; IPMSG_-_.<ModuleEntryPoint>
0041B6E7    00146D 4100586C add byte ptr ds:[ebp*2+0x6C580041],dl
0041B6EE    41              inc ecx                                  ; IPMSG_-_.<ModuleEntryPoint>
0041B6EF    00146D 4100146D add byte ptr ds:[ebp*2+0x6D140041],dl
0041B6F6    41              inc ecx                                  ; IPMSG_-_.<ModuleEntryPoint>
0041B6F7    00BD 14410058   add byte ptr ss:[ebp+0x58004114],bh
0041B6FD    6C              ins byte ptr es:[edi],dx
0041B6FE    41              inc ecx                                  ; IPMSG_-_.<ModuleEntryPoint>
0041B6FF    0019            add byte ptr ds:[ecx],bl
0041B701    6D              ins dword ptr es:[edi],dx
0041B702    41              inc ecx                                  ; IPMSG_-_.<ModuleEntryPoint>
0041B703    0031            add byte ptr ds:[ecx],dh
0041B705    6D              ins dword ptr es:[edi],dx
0041B706    41              inc ecx                                  ; IPMSG_-_.<ModuleEntryPoint>
0041B707    0045 6D         add byte ptr ss:[ebp+0x6D],al
0041B70A    41              inc ecx                                  ; IPMSG_-_.<ModuleEntryPoint>
0041B70B    0055 6D         add byte ptr ss:[ebp+0x6D],dl
0041B70E    41              inc ecx                                  ; IPMSG_-_.<ModuleEntryPoint>
0041B70F    006D 6D         add byte ptr ss:[ebp+0x6D],ch
0041B712    41              inc ecx                                  ; IPMSG_-_.<ModuleEntryPoint>
0041B713    00D3            add bl,dl
0041B715    6D              ins dword ptr es:[edi],dx
0041B716    41              inc ecx                                  ; IPMSG_-_.<ModuleEntryPoint>
0041B717    00DD            add ch,bl
0041B719    6D              ins dword ptr es:[edi],dx
0041B71A    41              inc ecx                                  ; IPMSG_-_.<ModuleEntryPoint>
0041B71B    0077 6D         add byte ptr ds:[edi+0x6D],dh
0041B71E    41              inc ecx                                  ; IPMSG_-_.<ModuleEntryPoint>
0041B71F    008F 6D4100A7   add byte ptr ds:[edi-0x58FFBE93],cl
0041B725    6D              ins dword ptr es:[edi],dx
0041B726    41              inc ecx                                  ; IPMSG_-_.<ModuleEntryPoint>
0041B727    00C3            add bl,al
0041B729    6D              ins dword ptr es:[edi],dx
0041B72A    41              inc ecx                                  ; IPMSG_-_.<ModuleEntryPoint>
0041B72B    0069 6E         add byte ptr ds:[ecx+0x6E],ch
0041B72E    41              inc ecx                                  ; IPMSG_-_.<ModuleEntryPoint>
0041B72F    0073 6E         add byte ptr ds:[ebx+0x6E],dh
0041B732    41              inc ecx                                  ; IPMSG_-_.<ModuleEntryPoint>
0041B733    0083 6E410097   add byte ptr ds:[ebx-0x68FFBE92],al
0041B739    6E              outs dx,byte ptr es:[edi]
0041B73A    41              inc ecx                                  ; IPMSG_-_.<ModuleEntryPoint>
0041B73B    00AB 6E4100BB   add byte ptr ds:[ebx-0x44FFBE92],ch
0041B741    6E              outs dx,byte ptr es:[edi]
0041B742    41              inc ecx                                  ; IPMSG_-_.<ModuleEntryPoint>
0041B743    00CA            add dl,cl
0041B745    42              inc edx                                  ; IPMSG_-_.<ModuleEntryPoint>
0041B746    40              inc eax
0041B747    00CB            add bl,cl
0041B749    6E              outs dx,byte ptr es:[edi]
0041B74A    41              inc ecx                                  ; IPMSG_-_.<ModuleEntryPoint>
0041B74B    005D 6C         add byte ptr ss:[ebp+0x6C],bl
0041B74E    41              inc ecx                                  ; IPMSG_-_.<ModuleEntryPoint>
0041B74F    00EA            add dl,ch
0041B751    6E              outs dx,byte ptr es:[edi]
0041B752    41              inc ecx                                  ; IPMSG_-_.<ModuleEntryPoint>
0041B753    004B 62         add byte ptr ds:[ebx+0x62],cl
0041B756    41              inc ecx                                  ; IPMSG_-_.<ModuleEntryPoint>
0041B757    00D0            add al,dl
0041B759    5E              pop esi                                  ; kernel32.765E6359
0041B75A    41              inc ecx                                  ; IPMSG_-_.<ModuleEntryPoint>
0041B75B    00246C          add byte ptr ss:[esp+ebp*2],ah
0041B75E    41              inc ecx                                  ; IPMSG_-_.<ModuleEntryPoint>
0041B75F    0028            add byte ptr ds:[eax],ch
0041B761    5E              pop esi                                  ; kernel32.765E6359
0041B762    41              inc ecx                                  ; IPMSG_-_.<ModuleEntryPoint>
0041B763    0081 5E4100BD   add byte ptr ds:[ecx-0x42FFBEA2],al
0041B769    6241 00         bound eax,qword ptr ds:[ecx]
0041B76C    AB              stos dword ptr es:[edi]
0041B76D    6F              outs dx,dword ptr es:[edi]
0041B76E    41              inc ecx                                  ; IPMSG_-_.<ModuleEntryPoint>
0041B76F    00B0 68410025   add byte ptr ds:[eax+0x25004168],dh
0041B775    68 41009168     push 0x68910041
0041B77A    41              inc ecx                                  ; IPMSG_-_.<ModuleEntryPoint>
0041B77B    0058 6C         add byte ptr ds:[eax+0x6C],bl
0041B77E    41              inc ecx                                  ; IPMSG_-_.<ModuleEntryPoint>
0041B77F    00BD 1441000F   add byte ptr ss:[ebp+0xF004114],bh
0041B785    6D              ins dword ptr es:[edi],dx
0041B786    41              inc ecx                                  ; IPMSG_-_.<ModuleEntryPoint>
0041B787    00B462 4100B462 add byte ptr ds:[edx+0x62B40041],dh
0041B78E    41              inc ecx                                  ; IPMSG_-_.<ModuleEntryPoint>
0041B78F    0005 6D410005   add byte ptr ds:[0x500416D],al
0041B795    6D              ins dword ptr es:[edi],dx
0041B796    41              inc ecx                                  ; IPMSG_-_.<ModuleEntryPoint>
0041B797    000B            add byte ptr ds:[ebx],cl
0041B799    6D              ins dword ptr es:[edi],dx
0041B79A    41              inc ecx                                  ; IPMSG_-_.<ModuleEntryPoint>
0041B79B    00B462 41000F6D add byte ptr ds:[edx+0x6D0F0041],dh
0041B7A2    41              inc ecx                                  ; IPMSG_-_.<ModuleEntryPoint>
0041B7A3    0058 6C         add byte ptr ds:[eax+0x6C],bl
0041B7A6    41              inc ecx                                  ; IPMSG_-_.<ModuleEntryPoint>
0041B7A7    000F            add byte ptr ds:[edi],cl
0041B7A9    6D              ins dword ptr es:[edi],dx
0041B7AA    41              inc ecx                                  ; IPMSG_-_.<ModuleEntryPoint>
0041B7AB    00BD 14410058   add byte ptr ss:[ebp+0x58004114],bh
0041B7B1    6C              ins byte ptr es:[edi],dx
0041B7B2    41              inc ecx                                  ; IPMSG_-_.<ModuleEntryPoint>
0041B7B3    00BD 144100BD   add byte ptr ss:[ebp-0x42FFBEEC],bh
0041B7B9    14 41           adc al,0x41
0041B7BB    00BD 144100BD   add byte ptr ss:[ebp-0x42FFBEEC],bh
0041B7C1    14 41           adc al,0x41
0041B7C3    0058 6C         add byte ptr ds:[eax+0x6C],bl
0041B7C6    41              inc ecx                                  ; IPMSG_-_.<ModuleEntryPoint>
0041B7C7    000F            add byte ptr ds:[edi],cl
0041B7C9    6D              ins dword ptr es:[edi],dx
0041B7CA    41              inc ecx                                  ; IPMSG_-_.<ModuleEntryPoint>
0041B7CB    00BD 144100BD   add byte ptr ss:[ebp-0x42FFBEEC],bh
0041B7D1    14 41           adc al,0x41
0041B7D3    000F            add byte ptr ds:[edi],cl
0041B7D5    6D              ins dword ptr es:[edi],dx
0041B7D6    41              inc ecx                                  ; IPMSG_-_.<ModuleEntryPoint>
0041B7D7    00146D 4100839D add byte ptr ds:[ebp*2-0x627CFFBF],dl
0041B7DE    40              inc eax
0041B7DF    00146D 4100146D add byte ptr ds:[ebp*2+0x6D140041],dl
0041B7E6    41              inc ecx                                  ; IPMSG_-_.<ModuleEntryPoint>
0041B7E7    00BC9C 4000B49D add byte ptr ss:[esp+ebx*4-0x624BFFC0],b>
0041B7EE    40              inc eax
0041B7EF    0019            add byte ptr ds:[ecx],bl
0041B7F1    6D              ins dword ptr es:[edi],dx
0041B7F2    41              inc ecx                                  ; IPMSG_-_.<ModuleEntryPoint>
0041B7F3    0031            add byte ptr ds:[ecx],dh
0041B7F5    6D              ins dword ptr es:[edi],dx
0041B7F6    41              inc ecx                                  ; IPMSG_-_.<ModuleEntryPoint>
0041B7F7    0045 6D         add byte ptr ss:[ebp+0x6D],al
0041B7FA    41              inc ecx                                  ; IPMSG_-_.<ModuleEntryPoint>
0041B7FB    0055 6D         add byte ptr ss:[ebp+0x6D],dl
0041B7FE    41              inc ecx                                  ; IPMSG_-_.<ModuleEntryPoint>
0041B7FF    006D 6D         add byte ptr ss:[ebp+0x6D],ch
0041B802    41              inc ecx                                  ; IPMSG_-_.<ModuleEntryPoint>
0041B803    00D3            add bl,dl
0041B805    6D              ins dword ptr es:[edi],dx
0041B806    41              inc ecx                                  ; IPMSG_-_.<ModuleEntryPoint>
0041B807    00DD            add ch,bl
0041B809    6D              ins dword ptr es:[edi],dx
0041B80A    41              inc ecx                                  ; IPMSG_-_.<ModuleEntryPoint>
0041B80B    0077 6D         add byte ptr ds:[edi+0x6D],dh
0041B80E    41              inc ecx                                  ; IPMSG_-_.<ModuleEntryPoint>
0041B80F    008F 6D4100A7   add byte ptr ds:[edi-0x58FFBE93],cl
0041B815    6D              ins dword ptr es:[edi],dx
0041B816    41              inc ecx                                  ; IPMSG_-_.<ModuleEntryPoint>
0041B817    00C3            add bl,al
0041B819    6D              ins dword ptr es:[edi],dx
0041B81A    41              inc ecx                                  ; IPMSG_-_.<ModuleEntryPoint>
0041B81B    0069 6E         add byte ptr ds:[ecx+0x6E],ch
0041B81E    41              inc ecx                                  ; IPMSG_-_.<ModuleEntryPoint>
0041B81F    0073 6E         add byte ptr ds:[ebx+0x6E],dh
0041B822    41              inc ecx                                  ; IPMSG_-_.<ModuleEntryPoint>
0041B823    0083 6E410097   add byte ptr ds:[ebx-0x68FFBE92],al
0041B829    6E              outs dx,byte ptr es:[edi]
0041B82A    41              inc ecx                                  ; IPMSG_-_.<ModuleEntryPoint>
0041B82B    00AB 6E4100BB   add byte ptr ds:[ebx-0x44FFBE92],ch
0041B831    6E              outs dx,byte ptr es:[edi]
0041B832    41              inc ecx                                  ; IPMSG_-_.<ModuleEntryPoint>
0041B833    00CA            add dl,cl
0041B835    42              inc edx                                  ; IPMSG_-_.<ModuleEntryPoint>
0041B836    40              inc eax
0041B837    00CB            add bl,cl
0041B839    6E              outs dx,byte ptr es:[edi]
0041B83A    41              inc ecx                                  ; IPMSG_-_.<ModuleEntryPoint>
0041B83B    005D 6C         add byte ptr ss:[ebp+0x6C],bl
0041B83E    41              inc ecx                                  ; IPMSG_-_.<ModuleEntryPoint>
0041B83F    00EA            add dl,ch
0041B841    6E              outs dx,byte ptr es:[edi]
0041B842    41              inc ecx                                  ; IPMSG_-_.<ModuleEntryPoint>
0041B843    00C7            add bh,al
0041B845    6F              outs dx,dword ptr es:[edi]
0041B846    41              inc ecx                                  ; IPMSG_-_.<ModuleEntryPoint>
0041B847    00CD            add ch,cl
0041B849    68 4100786F     push 0x6F780041
0041B84E    41              inc ecx                                  ; IPMSG_-_.<ModuleEntryPoint>
0041B84F    0048 6F         add byte ptr ds:[eax+0x6F],cl
0041B852    41              inc ecx                                  ; IPMSG_-_.<ModuleEntryPoint>
0041B853    00AB 6F4100B0   add byte ptr ds:[ebx-0x4FFFBE91],ch
0041B859    68 41002568     push 0x68250041
0041B85E    41              inc ecx                                  ; IPMSG_-_.<ModuleEntryPoint>
0041B85F    0091 68410058   add byte ptr ds:[ecx+0x58004168],dl
0041B865    6C              ins byte ptr es:[edi],dx
0041B866    41              inc ecx                                  ; IPMSG_-_.<ModuleEntryPoint>
0041B867    00BD 1441000F   add byte ptr ss:[ebp+0xF004114],bh
0041B86D    6D              ins dword ptr es:[edi],dx
0041B86E    41              inc ecx                                  ; IPMSG_-_.<ModuleEntryPoint>
0041B86F    00B462 4100B462 add byte ptr ds:[edx+0x62B40041],dh
0041B876    41              inc ecx                                  ; IPMSG_-_.<ModuleEntryPoint>
0041B877    0005 6D410005   add byte ptr ds:[0x500416D],al
0041B87D    6D              ins dword ptr es:[edi],dx
0041B87E    41              inc ecx                                  ; IPMSG_-_.<ModuleEntryPoint>
0041B87F    000B            add byte ptr ds:[ebx],cl
0041B881    6D              ins dword ptr es:[edi],dx
0041B882    41              inc ecx                                  ; IPMSG_-_.<ModuleEntryPoint>
0041B883    00B462 41000F6D add byte ptr ds:[edx+0x6D0F0041],dh
0041B88A    41              inc ecx                                  ; IPMSG_-_.<ModuleEntryPoint>
0041B88B    0058 6C         add byte ptr ds:[eax+0x6C],bl
0041B88E    41              inc ecx                                  ; IPMSG_-_.<ModuleEntryPoint>
0041B88F    000F            add byte ptr ds:[edi],cl
0041B891    6D              ins dword ptr es:[edi],dx
0041B892    41              inc ecx                                  ; IPMSG_-_.<ModuleEntryPoint>
0041B893    00BD 14410058   add byte ptr ss:[ebp+0x58004114],bh
0041B899    6C              ins byte ptr es:[edi],dx
0041B89A    41              inc ecx                                  ; IPMSG_-_.<ModuleEntryPoint>
0041B89B    00BD 144100BD   add byte ptr ss:[ebp-0x42FFBEEC],bh
0041B8A1    14 41           adc al,0x41
0041B8A3    00BD 144100BD   add byte ptr ss:[ebp-0x42FFBEEC],bh
0041B8A9    14 41           adc al,0x41
0041B8AB    0058 6C         add byte ptr ds:[eax+0x6C],bl
0041B8AE    41              inc ecx                                  ; IPMSG_-_.<ModuleEntryPoint>
0041B8AF    000F            add byte ptr ds:[edi],cl
0041B8B1    6D              ins dword ptr es:[edi],dx
0041B8B2    41              inc ecx                                  ; IPMSG_-_.<ModuleEntryPoint>
0041B8B3    00BD 144100BD   add byte ptr ss:[ebp-0x42FFBEEC],bh
0041B8B9    14 41           adc al,0x41
0041B8BB    000F            add byte ptr ds:[edi],cl
0041B8BD    6D              ins dword ptr es:[edi],dx
0041B8BE    41              inc ecx                                  ; IPMSG_-_.<ModuleEntryPoint>
0041B8BF    00146D 4100129E add byte ptr ds:[ebp*2-0x61EDFFBF],dl
0041B8C6    40              inc eax
0041B8C7    00146D 4100146D add byte ptr ds:[ebp*2+0x6D140041],dl
0041B8CE    41              inc ecx                                  ; IPMSG_-_.<ModuleEntryPoint>
0041B8CF    00BD 14410032   add byte ptr ss:[ebp+0x32004114],bh
0041B8D5    9E              sahf
0041B8D6    40              inc eax
0041B8D7    0019            add byte ptr ds:[ecx],bl
0041B8D9    6D              ins dword ptr es:[edi],dx
0041B8DA    41              inc ecx                                  ; IPMSG_-_.<ModuleEntryPoint>
0041B8DB    0031            add byte ptr ds:[ecx],dh
0041B8DD    6D              ins dword ptr es:[edi],dx
0041B8DE    41              inc ecx                                  ; IPMSG_-_.<ModuleEntryPoint>
0041B8DF    0045 6D         add byte ptr ss:[ebp+0x6D],al
0041B8E2    41              inc ecx                                  ; IPMSG_-_.<ModuleEntryPoint>
0041B8E3    0055 6D         add byte ptr ss:[ebp+0x6D],dl
0041B8E6    41              inc ecx                                  ; IPMSG_-_.<ModuleEntryPoint>
0041B8E7    006D 6D         add byte ptr ss:[ebp+0x6D],ch
0041B8EA    41              inc ecx                                  ; IPMSG_-_.<ModuleEntryPoint>
0041B8EB    00D3            add bl,dl
0041B8ED    6D              ins dword ptr es:[edi],dx
0041B8EE    41              inc ecx                                  ; IPMSG_-_.<ModuleEntryPoint>
0041B8EF    00DD            add ch,bl
0041B8F1    6D              ins dword ptr es:[edi],dx
0041B8F2    41              inc ecx                                  ; IPMSG_-_.<ModuleEntryPoint>
0041B8F3    0077 6D         add byte ptr ds:[edi+0x6D],dh
0041B8F6    41              inc ecx                                  ; IPMSG_-_.<ModuleEntryPoint>
0041B8F7    008F 6D4100A7   add byte ptr ds:[edi-0x58FFBE93],cl
0041B8FD    6D              ins dword ptr es:[edi],dx
0041B8FE    41              inc ecx                                  ; IPMSG_-_.<ModuleEntryPoint>
0041B8FF    00C3            add bl,al
0041B901    6D              ins dword ptr es:[edi],dx
0041B902    41              inc ecx                                  ; IPMSG_-_.<ModuleEntryPoint>
0041B903    0069 6E         add byte ptr ds:[ecx+0x6E],ch
0041B906    41              inc ecx                                  ; IPMSG_-_.<ModuleEntryPoint>
0041B907    0073 6E         add byte ptr ds:[ebx+0x6E],dh
0041B90A    41              inc ecx                                  ; IPMSG_-_.<ModuleEntryPoint>
0041B90B    0083 6E410097   add byte ptr ds:[ebx-0x68FFBE92],al
0041B911    6E              outs dx,byte ptr es:[edi]
0041B912    41              inc ecx                                  ; IPMSG_-_.<ModuleEntryPoint>
0041B913    00AB 6E4100BB   add byte ptr ds:[ebx-0x44FFBE92],ch
0041B919    6E              outs dx,byte ptr es:[edi]
0041B91A    41              inc ecx                                  ; IPMSG_-_.<ModuleEntryPoint>
0041B91B    00CA            add dl,cl
0041B91D    42              inc edx                                  ; IPMSG_-_.<ModuleEntryPoint>
0041B91E    40              inc eax
0041B91F    00CB            add bl,cl
0041B921    6E              outs dx,byte ptr es:[edi]
0041B922    41              inc ecx                                  ; IPMSG_-_.<ModuleEntryPoint>
0041B923    005D 6C         add byte ptr ss:[ebp+0x6C],bl
0041B926    41              inc ecx                                  ; IPMSG_-_.<ModuleEntryPoint>
0041B927    00EA            add dl,ch
0041B929    6E              outs dx,byte ptr es:[edi]
0041B92A    41              inc ecx                                  ; IPMSG_-_.<ModuleEntryPoint>
0041B92B    00C7            add bh,al
0041B92D    6F              outs dx,dword ptr es:[edi]
0041B92E    41              inc ecx                                  ; IPMSG_-_.<ModuleEntryPoint>
0041B92F    00CD            add ch,cl
0041B931    68 4100786F     push 0x6F780041
0041B936    41              inc ecx                                  ; IPMSG_-_.<ModuleEntryPoint>
0041B937    0048 6F         add byte ptr ds:[eax+0x6F],cl
0041B93A    41              inc ecx                                  ; IPMSG_-_.<ModuleEntryPoint>
0041B93B    00AB 6F4100B0   add byte ptr ds:[ebx-0x4FFFBE91],ch
0041B941    68 41002568     push 0x68250041
0041B946    41              inc ecx                                  ; IPMSG_-_.<ModuleEntryPoint>
0041B947    0091 68410058   add byte ptr ds:[ecx+0x58004168],dl
0041B94D    6C              ins byte ptr es:[edi],dx
0041B94E    41              inc ecx                                  ; IPMSG_-_.<ModuleEntryPoint>
0041B94F    00BD 1441000F   add byte ptr ss:[ebp+0xF004114],bh
0041B955    6D              ins dword ptr es:[edi],dx
0041B956    41              inc ecx                                  ; IPMSG_-_.<ModuleEntryPoint>
0041B957    00B462 4100B462 add byte ptr ds:[edx+0x62B40041],dh
0041B95E    41              inc ecx                                  ; IPMSG_-_.<ModuleEntryPoint>
0041B95F    0005 6D410005   add byte ptr ds:[0x500416D],al
0041B965    6D              ins dword ptr es:[edi],dx
0041B966    41              inc ecx                                  ; IPMSG_-_.<ModuleEntryPoint>
0041B967    000B            add byte ptr ds:[ebx],cl
0041B969    6D              ins dword ptr es:[edi],dx
0041B96A    41              inc ecx                                  ; IPMSG_-_.<ModuleEntryPoint>
0041B96B    00B462 41000F6D add byte ptr ds:[edx+0x6D0F0041],dh
0041B972    41              inc ecx                                  ; IPMSG_-_.<ModuleEntryPoint>
0041B973    0058 6C         add byte ptr ds:[eax+0x6C],bl
0041B976    41              inc ecx                                  ; IPMSG_-_.<ModuleEntryPoint>
0041B977    000F            add byte ptr ds:[edi],cl
0041B979    6D              ins dword ptr es:[edi],dx
0041B97A    41              inc ecx                                  ; IPMSG_-_.<ModuleEntryPoint>
0041B97B    00BD 1441004A   add byte ptr ss:[ebp+0x4A004114],bh
0041B981    A0 4000BD14     mov al,byte ptr ds:[0x14BD0040]
0041B986    41              inc ecx                                  ; IPMSG_-_.<ModuleEntryPoint>
0041B987    0059 A0         add byte ptr ds:[ecx-0x60],bl
0041B98A    40              inc eax
0041B98B    00BD 144100BD   add byte ptr ss:[ebp-0x42FFBEEC],bh
0041B991    14 41           adc al,0x41
0041B993    0058 6C         add byte ptr ds:[eax+0x6C],bl
0041B996    41              inc ecx                                  ; IPMSG_-_.<ModuleEntryPoint>
0041B997    000F            add byte ptr ds:[edi],cl
0041B999    6D              ins dword ptr es:[edi],dx
0041B99A    41              inc ecx                                  ; IPMSG_-_.<ModuleEntryPoint>
0041B99B    00BD 144100BD   add byte ptr ss:[ebp-0x42FFBEEC],bh
0041B9A1    14 41           adc al,0x41
0041B9A3    000F            add byte ptr ds:[edi],cl
0041B9A5    6D              ins dword ptr es:[edi],dx
0041B9A6    41              inc ecx                                  ; IPMSG_-_.<ModuleEntryPoint>
0041B9A7    00146D 410065A0 add byte ptr ds:[ebp*2-0x5F9AFFBF],dl
0041B9AE    40              inc eax
0041B9AF    00146D 4100146D add byte ptr ds:[ebp*2+0x6D140041],dl
0041B9B6    41              inc ecx                                  ; IPMSG_-_.<ModuleEntryPoint>
0041B9B7    00BD 14410058   add byte ptr ss:[ebp+0x58004114],bh
0041B9BD    6C              ins byte ptr es:[edi],dx
0041B9BE    41              inc ecx                                  ; IPMSG_-_.<ModuleEntryPoint>
0041B9BF    0019            add byte ptr ds:[ecx],bl
0041B9C1    6D              ins dword ptr es:[edi],dx
0041B9C2    41              inc ecx                                  ; IPMSG_-_.<ModuleEntryPoint>
0041B9C3    0031            add byte ptr ds:[ecx],dh
0041B9C5    6D              ins dword ptr es:[edi],dx
0041B9C6    41              inc ecx                                  ; IPMSG_-_.<ModuleEntryPoint>
0041B9C7    0045 6D         add byte ptr ss:[ebp+0x6D],al
0041B9CA    41              inc ecx                                  ; IPMSG_-_.<ModuleEntryPoint>
0041B9CB    0055 6D         add byte ptr ss:[ebp+0x6D],dl
0041B9CE    41              inc ecx                                  ; IPMSG_-_.<ModuleEntryPoint>
0041B9CF    006D 6D         add byte ptr ss:[ebp+0x6D],ch
0041B9D2    41              inc ecx                                  ; IPMSG_-_.<ModuleEntryPoint>
0041B9D3    00D3            add bl,dl
0041B9D5    6D              ins dword ptr es:[edi],dx
0041B9D6    41              inc ecx                                  ; IPMSG_-_.<ModuleEntryPoint>
0041B9D7    00DD            add ch,bl
0041B9D9    6D              ins dword ptr es:[edi],dx
0041B9DA    41              inc ecx                                  ; IPMSG_-_.<ModuleEntryPoint>
0041B9DB    0077 6D         add byte ptr ds:[edi+0x6D],dh
0041B9DE    41              inc ecx                                  ; IPMSG_-_.<ModuleEntryPoint>
0041B9DF    008F 6D4100A7   add byte ptr ds:[edi-0x58FFBE93],cl
0041B9E5    6D              ins dword ptr es:[edi],dx
0041B9E6    41              inc ecx                                  ; IPMSG_-_.<ModuleEntryPoint>
0041B9E7    00C3            add bl,al
0041B9E9    6D              ins dword ptr es:[edi],dx
0041B9EA    41              inc ecx                                  ; IPMSG_-_.<ModuleEntryPoint>
0041B9EB    0069 6E         add byte ptr ds:[ecx+0x6E],ch
0041B9EE    41              inc ecx                                  ; IPMSG_-_.<ModuleEntryPoint>
0041B9EF    0073 6E         add byte ptr ds:[ebx+0x6E],dh
0041B9F2    41              inc ecx                                  ; IPMSG_-_.<ModuleEntryPoint>
0041B9F3    0083 6E410097   add byte ptr ds:[ebx-0x68FFBE92],al
0041B9F9    6E              outs dx,byte ptr es:[edi]
0041B9FA    41              inc ecx                                  ; IPMSG_-_.<ModuleEntryPoint>
0041B9FB    00AB 6E4100BB   add byte ptr ds:[ebx-0x44FFBE92],ch
0041BA01    6E              outs dx,byte ptr es:[edi]
0041BA02    41              inc ecx                                  ; IPMSG_-_.<ModuleEntryPoint>
0041BA03    00CA            add dl,cl
0041BA05    42              inc edx                                  ; IPMSG_-_.<ModuleEntryPoint>
0041BA06    40              inc eax
0041BA07    00CB            add bl,cl
0041BA09    6E              outs dx,byte ptr es:[edi]
0041BA0A    41              inc ecx                                  ; IPMSG_-_.<ModuleEntryPoint>
0041BA0B    005D 6C         add byte ptr ss:[ebp+0x6C],bl
0041BA0E    41              inc ecx                                  ; IPMSG_-_.<ModuleEntryPoint>
0041BA0F    00EA            add dl,ch
0041BA11    6E              outs dx,byte ptr es:[edi]
0041BA12    41              inc ecx                                  ; IPMSG_-_.<ModuleEntryPoint>
0041BA13    00C7            add bh,al
0041BA15    6F              outs dx,dword ptr es:[edi]
0041BA16    41              inc ecx                                  ; IPMSG_-_.<ModuleEntryPoint>
0041BA17    00CD            add ch,cl
0041BA19    68 4100786F     push 0x6F780041
0041BA1E    41              inc ecx                                  ; IPMSG_-_.<ModuleEntryPoint>
0041BA1F    0048 6F         add byte ptr ds:[eax+0x6F],cl
0041BA22    41              inc ecx                                  ; IPMSG_-_.<ModuleEntryPoint>
0041BA23    00BF A04000B0   add byte ptr ds:[edi-0x4FFFBF60],bh
0041BA29    68 41002568     push 0x68250041
0041BA2E    41              inc ecx                                  ; IPMSG_-_.<ModuleEntryPoint>
0041BA2F    00C5            add ch,al
0041BA31    5E              pop esi                                  ; kernel32.765E6359
0041BA32    41              inc ecx                                  ; IPMSG_-_.<ModuleEntryPoint>
0041BA33    000D A24000BD   add byte ptr ds:[0xBD0040A2],cl
0041BA39    14 41           adc al,0x41
0041BA3B    00E6            add dh,ah
0041BA3D    A0 4000B462     mov al,byte ptr ds:[0x62B40040]
0041BA42    41              inc ecx                                  ; IPMSG_-_.<ModuleEntryPoint>
0041BA43    00F3            add bl,dh
0041BA45    A1 4000056D     mov eax,dword ptr ds:[0x6D050040]
0041BA4A    41              inc ecx                                  ; IPMSG_-_.<ModuleEntryPoint>
0041BA4B    0005 6D4100B4   add byte ptr ds:[0xB400416D],al
0041BA51    6241 00         bound eax,qword ptr ds:[ecx]
0041BA54    B4 62           mov ah,0x62
0041BA56    41              inc ecx                                  ; IPMSG_-_.<ModuleEntryPoint>
0041BA57    000F            add byte ptr ds:[edi],cl
0041BA59    6D              ins dword ptr es:[edi],dx
0041BA5A    41              inc ecx                                  ; IPMSG_-_.<ModuleEntryPoint>
0041BA5B    0058 6C         add byte ptr ds:[eax+0x6C],bl
0041BA5E    41              inc ecx                                  ; IPMSG_-_.<ModuleEntryPoint>
0041BA5F    000F            add byte ptr ds:[edi],cl
0041BA61    6D              ins dword ptr es:[edi],dx
0041BA62    41              inc ecx                                  ; IPMSG_-_.<ModuleEntryPoint>
0041BA63    00BD 14410058   add byte ptr ss:[ebp+0x58004114],bh
0041BA69    6C              ins byte ptr es:[edi],dx
0041BA6A    41              inc ecx                                  ; IPMSG_-_.<ModuleEntryPoint>
0041BA6B    00BD 144100BD   add byte ptr ss:[ebp-0x42FFBEEC],bh
0041BA71    14 41           adc al,0x41
0041BA73    00BD 144100BD   add byte ptr ss:[ebp-0x42FFBEEC],bh
0041BA79    14 41           adc al,0x41
0041BA7B    0058 6C         add byte ptr ds:[eax+0x6C],bl
0041BA7E    41              inc ecx                                  ; IPMSG_-_.<ModuleEntryPoint>
0041BA7F    000F            add byte ptr ds:[edi],cl
0041BA81    6D              ins dword ptr es:[edi],dx
0041BA82    41              inc ecx                                  ; IPMSG_-_.<ModuleEntryPoint>
0041BA83    00BD 144100BD   add byte ptr ss:[ebp-0x42FFBEEC],bh
0041BA89    14 41           adc al,0x41
0041BA8B    000F            add byte ptr ds:[edi],cl
0041BA8D    6D              ins dword ptr es:[edi],dx
0041BA8E    41              inc ecx                                  ; IPMSG_-_.<ModuleEntryPoint>
0041BA8F    00146D 4100586C add byte ptr ds:[ebp*2+0x6C580041],dl
0041BA96    41              inc ecx                                  ; IPMSG_-_.<ModuleEntryPoint>
0041BA97    00146D 4100146D add byte ptr ds:[ebp*2+0x6D140041],dl
0041BA9E    41              inc ecx                                  ; IPMSG_-_.<ModuleEntryPoint>
0041BA9F    00BD 14410040   add byte ptr ss:[ebp+0x40004114],bh
0041BAA5    A4              movs byte ptr es:[edi],byte ptr ds:[esi]
0041BAA6    40              inc eax
0041BAA7    0019            add byte ptr ds:[ecx],bl
0041BAA9    6D              ins dword ptr es:[edi],dx
0041BAAA    41              inc ecx                                  ; IPMSG_-_.<ModuleEntryPoint>
0041BAAB    0031            add byte ptr ds:[ecx],dh
0041BAAD    6D              ins dword ptr es:[edi],dx
0041BAAE    41              inc ecx                                  ; IPMSG_-_.<ModuleEntryPoint>
0041BAAF    0045 6D         add byte ptr ss:[ebp+0x6D],al
0041BAB2    41              inc ecx                                  ; IPMSG_-_.<ModuleEntryPoint>
0041BAB3    0055 6D         add byte ptr ss:[ebp+0x6D],dl
0041BAB6    41              inc ecx                                  ; IPMSG_-_.<ModuleEntryPoint>
0041BAB7    006D 6D         add byte ptr ss:[ebp+0x6D],ch
0041BABA    41              inc ecx                                  ; IPMSG_-_.<ModuleEntryPoint>
0041BABB    00D3            add bl,dl
0041BABD    6D              ins dword ptr es:[edi],dx
0041BABE    41              inc ecx                                  ; IPMSG_-_.<ModuleEntryPoint>
0041BABF    00DD            add ch,bl
0041BAC1    6D              ins dword ptr es:[edi],dx
0041BAC2    41              inc ecx                                  ; IPMSG_-_.<ModuleEntryPoint>
0041BAC3    0077 6D         add byte ptr ds:[edi+0x6D],dh
0041BAC6    41              inc ecx                                  ; IPMSG_-_.<ModuleEntryPoint>
0041BAC7    008F 6D4100A7   add byte ptr ds:[edi-0x58FFBE93],cl
0041BACD    6D              ins dword ptr es:[edi],dx
0041BACE    41              inc ecx                                  ; IPMSG_-_.<ModuleEntryPoint>
0041BACF    00C3            add bl,al
0041BAD1    6D              ins dword ptr es:[edi],dx
0041BAD2    41              inc ecx                                  ; IPMSG_-_.<ModuleEntryPoint>
0041BAD3    0069 6E         add byte ptr ds:[ecx+0x6E],ch
0041BAD6    41              inc ecx                                  ; IPMSG_-_.<ModuleEntryPoint>
0041BAD7    0073 6E         add byte ptr ds:[ebx+0x6E],dh
0041BADA    41              inc ecx                                  ; IPMSG_-_.<ModuleEntryPoint>
0041BADB    0083 6E410097   add byte ptr ds:[ebx-0x68FFBE92],al
0041BAE1    6E              outs dx,byte ptr es:[edi]
0041BAE2    41              inc ecx                                  ; IPMSG_-_.<ModuleEntryPoint>
0041BAE3    00AB 6E4100BB   add byte ptr ds:[ebx-0x44FFBE92],ch
0041BAE9    6E              outs dx,byte ptr es:[edi]
0041BAEA    41              inc ecx                                  ; IPMSG_-_.<ModuleEntryPoint>
0041BAEB    00CA            add dl,cl
0041BAED    42              inc edx                                  ; IPMSG_-_.<ModuleEntryPoint>
0041BAEE    40              inc eax
0041BAEF    00CB            add bl,cl
0041BAF1    6E              outs dx,byte ptr es:[edi]
0041BAF2    41              inc ecx                                  ; IPMSG_-_.<ModuleEntryPoint>
0041BAF3    005D 6C         add byte ptr ss:[ebp+0x6C],bl
0041BAF6    41              inc ecx                                  ; IPMSG_-_.<ModuleEntryPoint>
0041BAF7    00EA            add dl,ch
0041BAF9    6E              outs dx,byte ptr es:[edi]
0041BAFA    41              inc ecx                                  ; IPMSG_-_.<ModuleEntryPoint>
0041BAFB    004B 62         add byte ptr ds:[ebx+0x62],cl
0041BAFE    41              inc ecx                                  ; IPMSG_-_.<ModuleEntryPoint>
0041BAFF    00D0            add al,dl
0041BB01    5E              pop esi                                  ; kernel32.765E6359
0041BB02    41              inc ecx                                  ; IPMSG_-_.<ModuleEntryPoint>
0041BB03    00246C          add byte ptr ss:[esp+ebp*2],ah
0041BB06    41              inc ecx                                  ; IPMSG_-_.<ModuleEntryPoint>
0041BB07    0028            add byte ptr ds:[eax],ch
0041BB09    5E              pop esi                                  ; kernel32.765E6359
0041BB0A    41              inc ecx                                  ; IPMSG_-_.<ModuleEntryPoint>
0041BB0B    0081 5E4100BD   add byte ptr ds:[ecx-0x42FFBEA2],al
0041BB11    6241 00         bound eax,qword ptr ds:[ecx]
0041BB14    104F 41         adc byte ptr ds:[edi+0x41],cl
0041BB17    00B0 68410025   add byte ptr ds:[eax+0x25004168],dh
0041BB1D    68 4100C55E     push 0x5EC50041
0041BB22    41              inc ecx                                  ; IPMSG_-_.<ModuleEntryPoint>
0041BB23    0065 A6         add byte ptr ss:[ebp-0x5A],ah
0041BB26    40              inc eax
0041BB27    00BD 144100B7   add byte ptr ss:[ebp-0x48FFBEEC],bh
0041BB2D    A6              cmps byte ptr ds:[esi],byte ptr es:[edi]
0041BB2E    40              inc eax
0041BB2F    00B462 4100B462 add byte ptr ds:[edx+0x62B40041],dh
0041BB36    41              inc ecx                                  ; IPMSG_-_.<ModuleEntryPoint>
0041BB37    0005 6D410005   add byte ptr ds:[0x500416D],al
0041BB3D    6D              ins dword ptr es:[edi],dx
0041BB3E    41              inc ecx                                  ; IPMSG_-_.<ModuleEntryPoint>
0041BB3F    00B462 4100B462 add byte ptr ds:[edx+0x62B40041],dh
0041BB46    41              inc ecx                                  ; IPMSG_-_.<ModuleEntryPoint>
0041BB47    000F            add byte ptr ds:[edi],cl
0041BB49    6D              ins dword ptr es:[edi],dx
0041BB4A    41              inc ecx                                  ; IPMSG_-_.<ModuleEntryPoint>
0041BB4B    0058 6C         add byte ptr ds:[eax+0x6C],bl
0041BB4E    41              inc ecx                                  ; IPMSG_-_.<ModuleEntryPoint>
0041BB4F    000F            add byte ptr ds:[edi],cl
0041BB51    6D              ins dword ptr es:[edi],dx
0041BB52    41              inc ecx                                  ; IPMSG_-_.<ModuleEntryPoint>
0041BB53    00BD 14410058   add byte ptr ss:[ebp+0x58004114],bh
0041BB59    6C              ins byte ptr es:[edi],dx
0041BB5A    41              inc ecx                                  ; IPMSG_-_.<ModuleEntryPoint>
0041BB5B    00BD 144100BD   add byte ptr ss:[ebp-0x42FFBEEC],bh
0041BB61    14 41           adc al,0x41
0041BB63    00BD 144100BD   add byte ptr ss:[ebp-0x42FFBEEC],bh
0041BB69    14 41           adc al,0x41
0041BB6B    0058 6C         add byte ptr ds:[eax+0x6C],bl
0041BB6E    41              inc ecx                                  ; IPMSG_-_.<ModuleEntryPoint>
0041BB6F    000F            add byte ptr ds:[edi],cl
0041BB71    6D              ins dword ptr es:[edi],dx
0041BB72    41              inc ecx                                  ; IPMSG_-_.<ModuleEntryPoint>
0041BB73    00BD 144100BD   add byte ptr ss:[ebp-0x42FFBEEC],bh
0041BB79    14 41           adc al,0x41
0041BB7B    000F            add byte ptr ds:[edi],cl
0041BB7D    6D              ins dword ptr es:[edi],dx
0041BB7E    41              inc ecx                                  ; IPMSG_-_.<ModuleEntryPoint>
0041BB7F    00146D 4100586C add byte ptr ds:[ebp*2+0x6C580041],dl
0041BB86    41              inc ecx                                  ; IPMSG_-_.<ModuleEntryPoint>
0041BB87    00146D 4100146D add byte ptr ds:[ebp*2+0x6D140041],dl
0041BB8E    41              inc ecx                                  ; IPMSG_-_.<ModuleEntryPoint>
0041BB8F    00BD 14410058   add byte ptr ss:[ebp+0x58004114],bh
0041BB95    6C              ins byte ptr es:[edi],dx
0041BB96    41              inc ecx                                  ; IPMSG_-_.<ModuleEntryPoint>
0041BB97    0019            add byte ptr ds:[ecx],bl
0041BB99    6D              ins dword ptr es:[edi],dx
0041BB9A    41              inc ecx                                  ; IPMSG_-_.<ModuleEntryPoint>
0041BB9B    0031            add byte ptr ds:[ecx],dh
0041BB9D    6D              ins dword ptr es:[edi],dx
0041BB9E    41              inc ecx                                  ; IPMSG_-_.<ModuleEntryPoint>
0041BB9F    0045 6D         add byte ptr ss:[ebp+0x6D],al
0041BBA2    41              inc ecx                                  ; IPMSG_-_.<ModuleEntryPoint>
0041BBA3    0055 6D         add byte ptr ss:[ebp+0x6D],dl
0041BBA6    41              inc ecx                                  ; IPMSG_-_.<ModuleEntryPoint>
0041BBA7    006D 6D         add byte ptr ss:[ebp+0x6D],ch
0041BBAA    41              inc ecx                                  ; IPMSG_-_.<ModuleEntryPoint>
0041BBAB    00D3            add bl,dl
0041BBAD    6D              ins dword ptr es:[edi],dx
0041BBAE    41              inc ecx                                  ; IPMSG_-_.<ModuleEntryPoint>
0041BBAF    00DD            add ch,bl
0041BBB1    6D              ins dword ptr es:[edi],dx
0041BBB2    41              inc ecx                                  ; IPMSG_-_.<ModuleEntryPoint>
0041BBB3    0077 6D         add byte ptr ds:[edi+0x6D],dh
0041BBB6    41              inc ecx                                  ; IPMSG_-_.<ModuleEntryPoint>
0041BBB7    008F 6D4100A7   add byte ptr ds:[edi-0x58FFBE93],cl
0041BBBD    6D              ins dword ptr es:[edi],dx
0041BBBE    41              inc ecx                                  ; IPMSG_-_.<ModuleEntryPoint>
0041BBBF    00C3            add bl,al
0041BBC1    6D              ins dword ptr es:[edi],dx
0041BBC2    41              inc ecx                                  ; IPMSG_-_.<ModuleEntryPoint>
0041BBC3    0069 6E         add byte ptr ds:[ecx+0x6E],ch
0041BBC6    41              inc ecx                                  ; IPMSG_-_.<ModuleEntryPoint>
0041BBC7    0073 6E         add byte ptr ds:[ebx+0x6E],dh
0041BBCA    41              inc ecx                                  ; IPMSG_-_.<ModuleEntryPoint>
0041BBCB    0083 6E410097   add byte ptr ds:[ebx-0x68FFBE92],al
0041BBD1    6E              outs dx,byte ptr es:[edi]
0041BBD2    41              inc ecx                                  ; IPMSG_-_.<ModuleEntryPoint>
0041BBD3    00AB 6E4100BB   add byte ptr ds:[ebx-0x44FFBE92],ch
0041BBD9    6E              outs dx,byte ptr es:[edi]
0041BBDA    41              inc ecx                                  ; IPMSG_-_.<ModuleEntryPoint>
0041BBDB    00CA            add dl,cl
0041BBDD    42              inc edx                                  ; IPMSG_-_.<ModuleEntryPoint>
0041BBDE    40              inc eax
0041BBDF    00CB            add bl,cl
0041BBE1    6E              outs dx,byte ptr es:[edi]
0041BBE2    41              inc ecx                                  ; IPMSG_-_.<ModuleEntryPoint>
0041BBE3    005D 6C         add byte ptr ss:[ebp+0x6C],bl
0041BBE6    41              inc ecx                                  ; IPMSG_-_.<ModuleEntryPoint>
0041BBE7    00EA            add dl,ch
0041BBE9    6E              outs dx,byte ptr es:[edi]
0041BBEA    41              inc ecx                                  ; IPMSG_-_.<ModuleEntryPoint>
0041BBEB    004B 62         add byte ptr ds:[ebx+0x62],cl
0041BBEE    41              inc ecx                                  ; IPMSG_-_.<ModuleEntryPoint>
0041BBEF    00D0            add al,dl
0041BBF1    5E              pop esi                                  ; kernel32.765E6359
0041BBF2    41              inc ecx                                  ; IPMSG_-_.<ModuleEntryPoint>
0041BBF3    00246C          add byte ptr ss:[esp+ebp*2],ah
0041BBF6    41              inc ecx                                  ; IPMSG_-_.<ModuleEntryPoint>
0041BBF7    0028            add byte ptr ds:[eax],ch
0041BBF9    5E              pop esi                                  ; kernel32.765E6359
0041BBFA    41              inc ecx                                  ; IPMSG_-_.<ModuleEntryPoint>
0041BBFB    0044A6 40       add byte ptr ds:[esi+0x40],al
0041BBFF    00BD 6241001F   add byte ptr ss:[ebp+0x1F004162],bh
0041BC05    AB              stos dword ptr es:[edi]
0041BC06    40              inc eax
0041BC07    00B0 68410025   add byte ptr ds:[eax+0x25004168],dh
0041BC0D    68 4100C55E     push 0x5EC50041
0041BC12    41              inc ecx                                  ; IPMSG_-_.<ModuleEntryPoint>
0041BC13    0016            add byte ptr ds:[esi],dl
0041BC15    AC              lods byte ptr ds:[esi]
0041BC16    40              inc eax
0041BC17    00BD 14410046   add byte ptr ss:[ebp+0x46004114],bh
0041BC1D    AB              stos dword ptr es:[edi]
0041BC1E    40              inc eax
0041BC1F    00B462 4100EEAB add byte ptr ds:[edx-0x5411FFBF],dh
0041BC26    40              inc eax
0041BC27    0005 6D410005   add byte ptr ds:[0x500416D],al
0041BC2D    6D              ins dword ptr es:[edi],dx
0041BC2E    41              inc ecx                                  ; IPMSG_-_.<ModuleEntryPoint>
0041BC2F    00B462 4100B462 add byte ptr ds:[edx+0x62B40041],dh
0041BC36    41              inc ecx                                  ; IPMSG_-_.<ModuleEntryPoint>
0041BC37    000F            add byte ptr ds:[edi],cl
0041BC39    6D              ins dword ptr es:[edi],dx
0041BC3A    41              inc ecx                                  ; IPMSG_-_.<ModuleEntryPoint>
0041BC3B    0058 6C         add byte ptr ds:[eax+0x6C],bl
0041BC3E    41              inc ecx                                  ; IPMSG_-_.<ModuleEntryPoint>
0041BC3F    000F            add byte ptr ds:[edi],cl
0041BC41    6D              ins dword ptr es:[edi],dx
0041BC42    41              inc ecx                                  ; IPMSG_-_.<ModuleEntryPoint>
0041BC43    00BD 14410058   add byte ptr ss:[ebp+0x58004114],bh
0041BC49    6C              ins byte ptr es:[edi],dx
0041BC4A    41              inc ecx                                  ; IPMSG_-_.<ModuleEntryPoint>
0041BC4B    00BD 144100BD   add byte ptr ss:[ebp-0x42FFBEEC],bh
0041BC51    14 41           adc al,0x41
0041BC53    00BD 144100BD   add byte ptr ss:[ebp-0x42FFBEEC],bh
0041BC59    14 41           adc al,0x41
0041BC5B    0058 6C         add byte ptr ds:[eax+0x6C],bl
0041BC5E    41              inc ecx                                  ; IPMSG_-_.<ModuleEntryPoint>
0041BC5F    000F            add byte ptr ds:[edi],cl
0041BC61    6D              ins dword ptr es:[edi],dx
0041BC62    41              inc ecx                                  ; IPMSG_-_.<ModuleEntryPoint>
0041BC63    00BD 144100BD   add byte ptr ss:[ebp-0x42FFBEEC],bh
0041BC69    14 41           adc al,0x41
0041BC6B    000F            add byte ptr ds:[edi],cl
0041BC6D    6D              ins dword ptr es:[edi],dx
0041BC6E    41              inc ecx                                  ; IPMSG_-_.<ModuleEntryPoint>
0041BC6F    00146D 4100586C add byte ptr ds:[ebp*2+0x6C580041],dl
0041BC76    41              inc ecx                                  ; IPMSG_-_.<ModuleEntryPoint>
0041BC77    00146D 4100146D add byte ptr ds:[ebp*2+0x6D140041],dl
0041BC7E    41              inc ecx                                  ; IPMSG_-_.<ModuleEntryPoint>
0041BC7F    00BD 14410058   add byte ptr ss:[ebp+0x58004114],bh
0041BC85    6C              ins byte ptr es:[edi],dx
0041BC86    41              inc ecx                                  ; IPMSG_-_.<ModuleEntryPoint>
0041BC87    0019            add byte ptr ds:[ecx],bl
0041BC89    6D              ins dword ptr es:[edi],dx
0041BC8A    41              inc ecx                                  ; IPMSG_-_.<ModuleEntryPoint>
0041BC8B    0031            add byte ptr ds:[ecx],dh
0041BC8D    6D              ins dword ptr es:[edi],dx
0041BC8E    41              inc ecx                                  ; IPMSG_-_.<ModuleEntryPoint>
0041BC8F    0045 6D         add byte ptr ss:[ebp+0x6D],al
0041BC92    41              inc ecx                                  ; IPMSG_-_.<ModuleEntryPoint>
0041BC93    0055 6D         add byte ptr ss:[ebp+0x6D],dl
0041BC96    41              inc ecx                                  ; IPMSG_-_.<ModuleEntryPoint>
0041BC97    006D 6D         add byte ptr ss:[ebp+0x6D],ch
0041BC9A    41              inc ecx                                  ; IPMSG_-_.<ModuleEntryPoint>
0041BC9B    00D3            add bl,dl
0041BC9D    6D              ins dword ptr es:[edi],dx
0041BC9E    41              inc ecx                                  ; IPMSG_-_.<ModuleEntryPoint>
0041BC9F    00DD            add ch,bl
0041BCA1    6D              ins dword ptr es:[edi],dx
0041BCA2    41              inc ecx                                  ; IPMSG_-_.<ModuleEntryPoint>
0041BCA3    0077 6D         add byte ptr ds:[edi+0x6D],dh
0041BCA6    41              inc ecx                                  ; IPMSG_-_.<ModuleEntryPoint>
0041BCA7    008F 6D4100A7   add byte ptr ds:[edi-0x58FFBE93],cl
0041BCAD    6D              ins dword ptr es:[edi],dx
0041BCAE    41              inc ecx                                  ; IPMSG_-_.<ModuleEntryPoint>
0041BCAF    00C3            add bl,al
0041BCB1    6D              ins dword ptr es:[edi],dx
0041BCB2    41              inc ecx                                  ; IPMSG_-_.<ModuleEntryPoint>
0041BCB3    0069 6E         add byte ptr ds:[ecx+0x6E],ch
0041BCB6    41              inc ecx                                  ; IPMSG_-_.<ModuleEntryPoint>
0041BCB7    0073 6E         add byte ptr ds:[ebx+0x6E],dh
0041BCBA    41              inc ecx                                  ; IPMSG_-_.<ModuleEntryPoint>
0041BCBB    0083 6E410097   add byte ptr ds:[ebx-0x68FFBE92],al
0041BCC1    6E              outs dx,byte ptr es:[edi]
0041BCC2    41              inc ecx                                  ; IPMSG_-_.<ModuleEntryPoint>
0041BCC3    00AB 6E4100BB   add byte ptr ds:[ebx-0x44FFBE92],ch
0041BCC9    6E              outs dx,byte ptr es:[edi]
0041BCCA    41              inc ecx                                  ; IPMSG_-_.<ModuleEntryPoint>
0041BCCB    00CA            add dl,cl
0041BCCD    42              inc edx                                  ; IPMSG_-_.<ModuleEntryPoint>
0041BCCE    40              inc eax
0041BCCF    00CB            add bl,cl
0041BCD1    6E              outs dx,byte ptr es:[edi]
0041BCD2    41              inc ecx                                  ; IPMSG_-_.<ModuleEntryPoint>
0041BCD3    005D 6C         add byte ptr ss:[ebp+0x6C],bl
0041BCD6    41              inc ecx                                  ; IPMSG_-_.<ModuleEntryPoint>
0041BCD7    00EA            add dl,ch
0041BCD9    6E              outs dx,byte ptr es:[edi]
0041BCDA    41              inc ecx                                  ; IPMSG_-_.<ModuleEntryPoint>
0041BCDB    004B 62         add byte ptr ds:[ebx+0x62],cl
0041BCDE    41              inc ecx                                  ; IPMSG_-_.<ModuleEntryPoint>
0041BCDF    00D0            add al,dl
0041BCE1    5E              pop esi                                  ; kernel32.765E6359
0041BCE2    41              inc ecx                                  ; IPMSG_-_.<ModuleEntryPoint>
0041BCE3    00246C          add byte ptr ss:[esp+ebp*2],ah
0041BCE6    41              inc ecx                                  ; IPMSG_-_.<ModuleEntryPoint>
0041BCE7    0028            add byte ptr ds:[eax],ch
0041BCE9    5E              pop esi                                  ; kernel32.765E6359
0041BCEA    41              inc ecx                                  ; IPMSG_-_.<ModuleEntryPoint>
0041BCEB    0081 5E4100BD   add byte ptr ds:[ecx-0x42FFBEA2],al
0041BCF1    6241 00         bound eax,qword ptr ds:[ecx]
0041BCF4    104F 41         adc byte ptr ds:[edi+0x41],cl
0041BCF7    00B0 68410025   add byte ptr ds:[eax+0x25004168],dh
0041BCFD    68 4100C55E     push 0x5EC50041
0041BD02    41              inc ecx                                  ; IPMSG_-_.<ModuleEntryPoint>
0041BD03    00B0 AF4000BD   add byte ptr ds:[eax-0x42FFBF51],dh
0041BD09    14 41           adc al,0x41
0041BD0B    0053 B0         add byte ptr ds:[ebx-0x50],dl
0041BD0E    40              inc eax
0041BD0F    00B462 4100B462 add byte ptr ds:[edx+0x62B40041],dh
0041BD16    41              inc ecx                                  ; IPMSG_-_.<ModuleEntryPoint>
0041BD17    0005 6D410005   add byte ptr ds:[0x500416D],al
0041BD1D    6D              ins dword ptr es:[edi],dx
0041BD1E    41              inc ecx                                  ; IPMSG_-_.<ModuleEntryPoint>
0041BD1F    00B462 4100B462 add byte ptr ds:[edx+0x62B40041],dh
0041BD26    41              inc ecx                                  ; IPMSG_-_.<ModuleEntryPoint>
0041BD27    000F            add byte ptr ds:[edi],cl
0041BD29    6D              ins dword ptr es:[edi],dx
0041BD2A    41              inc ecx                                  ; IPMSG_-_.<ModuleEntryPoint>
0041BD2B    0058 6C         add byte ptr ds:[eax+0x6C],bl
0041BD2E    41              inc ecx                                  ; IPMSG_-_.<ModuleEntryPoint>
0041BD2F    000F            add byte ptr ds:[edi],cl
0041BD31    6D              ins dword ptr es:[edi],dx
0041BD32    41              inc ecx                                  ; IPMSG_-_.<ModuleEntryPoint>
0041BD33    00BD 14410058   add byte ptr ss:[ebp+0x58004114],bh
0041BD39    6C              ins byte ptr es:[edi],dx
0041BD3A    41              inc ecx                                  ; IPMSG_-_.<ModuleEntryPoint>
0041BD3B    00BD 144100BD   add byte ptr ss:[ebp-0x42FFBEEC],bh
0041BD41    14 41           adc al,0x41
0041BD43    00BD 144100BD   add byte ptr ss:[ebp-0x42FFBEEC],bh
0041BD49    14 41           adc al,0x41
0041BD4B    0058 6C         add byte ptr ds:[eax+0x6C],bl
0041BD4E    41              inc ecx                                  ; IPMSG_-_.<ModuleEntryPoint>
0041BD4F    000F            add byte ptr ds:[edi],cl
0041BD51    6D              ins dword ptr es:[edi],dx
0041BD52    41              inc ecx                                  ; IPMSG_-_.<ModuleEntryPoint>
0041BD53    00BD 144100BD   add byte ptr ss:[ebp-0x42FFBEEC],bh
0041BD59    14 41           adc al,0x41
0041BD5B    000F            add byte ptr ds:[edi],cl
0041BD5D    6D              ins dword ptr es:[edi],dx
0041BD5E    41              inc ecx                                  ; IPMSG_-_.<ModuleEntryPoint>
0041BD5F    00146D 4100586C add byte ptr ds:[ebp*2+0x6C580041],dl
0041BD66    41              inc ecx                                  ; IPMSG_-_.<ModuleEntryPoint>
0041BD67    00146D 4100146D add byte ptr ds:[ebp*2+0x6D140041],dl
0041BD6E    41              inc ecx                                  ; IPMSG_-_.<ModuleEntryPoint>
0041BD6F    00BD 14410058   add byte ptr ss:[ebp+0x58004114],bh
0041BD75    6C              ins byte ptr es:[edi],dx
0041BD76    41              inc ecx                                  ; IPMSG_-_.<ModuleEntryPoint>
0041BD77    0019            add byte ptr ds:[ecx],bl
0041BD79    6D              ins dword ptr es:[edi],dx
0041BD7A    41              inc ecx                                  ; IPMSG_-_.<ModuleEntryPoint>
0041BD7B    0031            add byte ptr ds:[ecx],dh
0041BD7D    6D              ins dword ptr es:[edi],dx
0041BD7E    41              inc ecx                                  ; IPMSG_-_.<ModuleEntryPoint>
0041BD7F    0045 6D         add byte ptr ss:[ebp+0x6D],al
0041BD82    41              inc ecx                                  ; IPMSG_-_.<ModuleEntryPoint>
0041BD83    0055 6D         add byte ptr ss:[ebp+0x6D],dl
0041BD86    41              inc ecx                                  ; IPMSG_-_.<ModuleEntryPoint>
0041BD87    006D 6D         add byte ptr ss:[ebp+0x6D],ch
0041BD8A    41              inc ecx                                  ; IPMSG_-_.<ModuleEntryPoint>
0041BD8B    00D3            add bl,dl
0041BD8D    6D              ins dword ptr es:[edi],dx
0041BD8E    41              inc ecx                                  ; IPMSG_-_.<ModuleEntryPoint>
0041BD8F    00DD            add ch,bl
0041BD91    6D              ins dword ptr es:[edi],dx
0041BD92    41              inc ecx                                  ; IPMSG_-_.<ModuleEntryPoint>
0041BD93    0077 6D         add byte ptr ds:[edi+0x6D],dh
0041BD96    41              inc ecx                                  ; IPMSG_-_.<ModuleEntryPoint>
0041BD97    008F 6D4100A7   add byte ptr ds:[edi-0x58FFBE93],cl
0041BD9D    6D              ins dword ptr es:[edi],dx
0041BD9E    41              inc ecx                                  ; IPMSG_-_.<ModuleEntryPoint>
0041BD9F    00C3            add bl,al
0041BDA1    6D              ins dword ptr es:[edi],dx
0041BDA2    41              inc ecx                                  ; IPMSG_-_.<ModuleEntryPoint>
0041BDA3    0069 6E         add byte ptr ds:[ecx+0x6E],ch
0041BDA6    41              inc ecx                                  ; IPMSG_-_.<ModuleEntryPoint>
0041BDA7    0073 6E         add byte ptr ds:[ebx+0x6E],dh
0041BDAA    41              inc ecx                                  ; IPMSG_-_.<ModuleEntryPoint>
0041BDAB    0083 6E410097   add byte ptr ds:[ebx-0x68FFBE92],al
0041BDB1    6E              outs dx,byte ptr es:[edi]
0041BDB2    41              inc ecx                                  ; IPMSG_-_.<ModuleEntryPoint>
0041BDB3    00AB 6E4100BB   add byte ptr ds:[ebx-0x44FFBE92],ch
0041BDB9    6E              outs dx,byte ptr es:[edi]
0041BDBA    41              inc ecx                                  ; IPMSG_-_.<ModuleEntryPoint>
0041BDBB    00CA            add dl,cl
0041BDBD    42              inc edx                                  ; IPMSG_-_.<ModuleEntryPoint>
0041BDBE    40              inc eax
0041BDBF    00CB            add bl,cl
0041BDC1    6E              outs dx,byte ptr es:[edi]
0041BDC2    41              inc ecx                                  ; IPMSG_-_.<ModuleEntryPoint>
0041BDC3    005D 6C         add byte ptr ss:[ebp+0x6C],bl
0041BDC6    41              inc ecx                                  ; IPMSG_-_.<ModuleEntryPoint>
0041BDC7    00EA            add dl,ch
0041BDC9    6E              outs dx,byte ptr es:[edi]
0041BDCA    41              inc ecx                                  ; IPMSG_-_.<ModuleEntryPoint>
0041BDCB    004B 62         add byte ptr ds:[ebx+0x62],cl
0041BDCE    41              inc ecx                                  ; IPMSG_-_.<ModuleEntryPoint>
0041BDCF    00D0            add al,dl
0041BDD1    5E              pop esi                                  ; kernel32.765E6359
0041BDD2    41              inc ecx                                  ; IPMSG_-_.<ModuleEntryPoint>
0041BDD3    00246C          add byte ptr ss:[esp+ebp*2],ah
0041BDD6    41              inc ecx                                  ; IPMSG_-_.<ModuleEntryPoint>
0041BDD7    0028            add byte ptr ds:[eax],ch
0041BDD9    5E              pop esi                                  ; kernel32.765E6359
0041BDDA    41              inc ecx                                  ; IPMSG_-_.<ModuleEntryPoint>
0041BDDB    0081 5E4100BD   add byte ptr ds:[ecx-0x42FFBEA2],al
0041BDE1    6241 00         bound eax,qword ptr ds:[ecx]
0041BDE4    104F 41         adc byte ptr ds:[edi+0x41],cl
0041BDE7    00B0 68410025   add byte ptr ds:[eax+0x25004168],dh
0041BDED    68 4100C55E     push 0x5EC50041
0041BDF2    41              inc ecx                                  ; IPMSG_-_.<ModuleEntryPoint>
0041BDF3    0003            add byte ptr ds:[ebx],al
0041BDF5    B1 40           mov cl,0x40
0041BDF7    00BD 14410000   add byte ptr ss:[ebp+0x4114],bh
0041BDFD    B2 40           mov dl,0x40
0041BDFF    00B462 4100B462 add byte ptr ds:[edx+0x62B40041],dh
0041BE06    41              inc ecx                                  ; IPMSG_-_.<ModuleEntryPoint>
0041BE07    0005 6D410005   add byte ptr ds:[0x500416D],al
0041BE0D    6D              ins dword ptr es:[edi],dx
0041BE0E    41              inc ecx                                  ; IPMSG_-_.<ModuleEntryPoint>
0041BE0F    00B462 4100B462 add byte ptr ds:[edx+0x62B40041],dh
0041BE16    41              inc ecx                                  ; IPMSG_-_.<ModuleEntryPoint>
0041BE17    000F            add byte ptr ds:[edi],cl
0041BE19    6D              ins dword ptr es:[edi],dx
0041BE1A    41              inc ecx                                  ; IPMSG_-_.<ModuleEntryPoint>
0041BE1B    0058 6C         add byte ptr ds:[eax+0x6C],bl
0041BE1E    41              inc ecx                                  ; IPMSG_-_.<ModuleEntryPoint>
0041BE1F    000F            add byte ptr ds:[edi],cl
0041BE21    6D              ins dword ptr es:[edi],dx
0041BE22    41              inc ecx                                  ; IPMSG_-_.<ModuleEntryPoint>
0041BE23    00BD 14410058   add byte ptr ss:[ebp+0x58004114],bh
0041BE29    6C              ins byte ptr es:[edi],dx
0041BE2A    41              inc ecx                                  ; IPMSG_-_.<ModuleEntryPoint>
0041BE2B    00BD 144100BD   add byte ptr ss:[ebp-0x42FFBEEC],bh
0041BE31    14 41           adc al,0x41
0041BE33    00BD 144100BD   add byte ptr ss:[ebp-0x42FFBEEC],bh
0041BE39    14 41           adc al,0x41
0041BE3B    0058 6C         add byte ptr ds:[eax+0x6C],bl
0041BE3E    41              inc ecx                                  ; IPMSG_-_.<ModuleEntryPoint>
0041BE3F    000F            add byte ptr ds:[edi],cl
0041BE41    6D              ins dword ptr es:[edi],dx
0041BE42    41              inc ecx                                  ; IPMSG_-_.<ModuleEntryPoint>
0041BE43    00BD 144100BD   add byte ptr ss:[ebp-0x42FFBEEC],bh
0041BE49    14 41           adc al,0x41
0041BE4B    000F            add byte ptr ds:[edi],cl
0041BE4D    6D              ins dword ptr es:[edi],dx
0041BE4E    41              inc ecx                                  ; IPMSG_-_.<ModuleEntryPoint>
0041BE4F    00146D 4100586C add byte ptr ds:[ebp*2+0x6C580041],dl
0041BE56    41              inc ecx                                  ; IPMSG_-_.<ModuleEntryPoint>
0041BE57    00146D 4100146D add byte ptr ds:[ebp*2+0x6D140041],dl
0041BE5E    41              inc ecx                                  ; IPMSG_-_.<ModuleEntryPoint>
0041BE5F    00BD 14410058   add byte ptr ss:[ebp+0x58004114],bh
0041BE65    6C              ins byte ptr es:[edi],dx
0041BE66    41              inc ecx                                  ; IPMSG_-_.<ModuleEntryPoint>
0041BE67    0019            add byte ptr ds:[ecx],bl
0041BE69    6D              ins dword ptr es:[edi],dx
0041BE6A    41              inc ecx                                  ; IPMSG_-_.<ModuleEntryPoint>
0041BE6B    0031            add byte ptr ds:[ecx],dh
0041BE6D    6D              ins dword ptr es:[edi],dx
0041BE6E    41              inc ecx                                  ; IPMSG_-_.<ModuleEntryPoint>
0041BE6F    0045 6D         add byte ptr ss:[ebp+0x6D],al
0041BE72    41              inc ecx                                  ; IPMSG_-_.<ModuleEntryPoint>
0041BE73    0055 6D         add byte ptr ss:[ebp+0x6D],dl
0041BE76    41              inc ecx                                  ; IPMSG_-_.<ModuleEntryPoint>
0041BE77    006D 6D         add byte ptr ss:[ebp+0x6D],ch
0041BE7A    41              inc ecx                                  ; IPMSG_-_.<ModuleEntryPoint>
0041BE7B    00D3            add bl,dl
0041BE7D    6D              ins dword ptr es:[edi],dx
0041BE7E    41              inc ecx                                  ; IPMSG_-_.<ModuleEntryPoint>
0041BE7F    00DD            add ch,bl
0041BE81    6D              ins dword ptr es:[edi],dx
0041BE82    41              inc ecx                                  ; IPMSG_-_.<ModuleEntryPoint>
0041BE83    0077 6D         add byte ptr ds:[edi+0x6D],dh
0041BE86    41              inc ecx                                  ; IPMSG_-_.<ModuleEntryPoint>
0041BE87    008F 6D4100A7   add byte ptr ds:[edi-0x58FFBE93],cl
0041BE8D    6D              ins dword ptr es:[edi],dx
0041BE8E    41              inc ecx                                  ; IPMSG_-_.<ModuleEntryPoint>
0041BE8F    00C3            add bl,al
0041BE91    6D              ins dword ptr es:[edi],dx
0041BE92    41              inc ecx                                  ; IPMSG_-_.<ModuleEntryPoint>
0041BE93    0069 6E         add byte ptr ds:[ecx+0x6E],ch
0041BE96    41              inc ecx                                  ; IPMSG_-_.<ModuleEntryPoint>
0041BE97    0073 6E         add byte ptr ds:[ebx+0x6E],dh
0041BE9A    41              inc ecx                                  ; IPMSG_-_.<ModuleEntryPoint>
0041BE9B    0083 6E410097   add byte ptr ds:[ebx-0x68FFBE92],al
0041BEA1    6E              outs dx,byte ptr es:[edi]
0041BEA2    41              inc ecx                                  ; IPMSG_-_.<ModuleEntryPoint>
0041BEA3    00AB 6E4100BB   add byte ptr ds:[ebx-0x44FFBE92],ch
0041BEA9    6E              outs dx,byte ptr es:[edi]
0041BEAA    41              inc ecx                                  ; IPMSG_-_.<ModuleEntryPoint>
0041BEAB    00CA            add dl,cl
0041BEAD    42              inc edx                                  ; IPMSG_-_.<ModuleEntryPoint>
0041BEAE    40              inc eax
0041BEAF    00CB            add bl,cl
0041BEB1    6E              outs dx,byte ptr es:[edi]
0041BEB2    41              inc ecx                                  ; IPMSG_-_.<ModuleEntryPoint>
0041BEB3    005D 6C         add byte ptr ss:[ebp+0x6C],bl
0041BEB6    41              inc ecx                                  ; IPMSG_-_.<ModuleEntryPoint>
0041BEB7    00EA            add dl,ch
0041BEB9    6E              outs dx,byte ptr es:[edi]
0041BEBA    41              inc ecx                                  ; IPMSG_-_.<ModuleEntryPoint>
0041BEBB    004B 62         add byte ptr ds:[ebx+0x62],cl
0041BEBE    41              inc ecx                                  ; IPMSG_-_.<ModuleEntryPoint>
0041BEBF    00D0            add al,dl
0041BEC1    5E              pop esi                                  ; kernel32.765E6359
0041BEC2    41              inc ecx                                  ; IPMSG_-_.<ModuleEntryPoint>
0041BEC3    00246C          add byte ptr ss:[esp+ebp*2],ah
0041BEC6    41              inc ecx                                  ; IPMSG_-_.<ModuleEntryPoint>
0041BEC7    0028            add byte ptr ds:[eax],ch
0041BEC9    5E              pop esi                                  ; kernel32.765E6359
0041BECA    41              inc ecx                                  ; IPMSG_-_.<ModuleEntryPoint>
0041BECB    0081 5E4100BD   add byte ptr ds:[ecx-0x42FFBEA2],al
0041BED1    6241 00         bound eax,qword ptr ds:[ecx]
0041BED4    104F 41         adc byte ptr ds:[edi+0x41],cl
0041BED7    00B0 68410025   add byte ptr ds:[eax+0x25004168],dh
0041BEDD    68 4100C55E     push 0x5EC50041
0041BEE2    41              inc ecx                                  ; IPMSG_-_.<ModuleEntryPoint>
0041BEE3    007CB8 40       add byte ptr ds:[eax+edi*4+0x40],bh
0041BEE7    00BD 1441004B   add byte ptr ss:[ebp+0x4B004114],bh
0041BEED    BA 4000B462     mov edx,0x62B40040
0041BEF2    41              inc ecx                                  ; IPMSG_-_.<ModuleEntryPoint>
0041BEF3    00B462 4100056D add byte ptr ds:[edx+0x6D050041],dh
0041BEFA    41              inc ecx                                  ; IPMSG_-_.<ModuleEntryPoint>
0041BEFB    0005 6D4100B4   add byte ptr ds:[0xB400416D],al
0041BF01    6241 00         bound eax,qword ptr ds:[ecx]
0041BF04    B4 62           mov ah,0x62
0041BF06    41              inc ecx                                  ; IPMSG_-_.<ModuleEntryPoint>
0041BF07    000F            add byte ptr ds:[edi],cl
0041BF09    6D              ins dword ptr es:[edi],dx
0041BF0A    41              inc ecx                                  ; IPMSG_-_.<ModuleEntryPoint>
0041BF0B    0058 6C         add byte ptr ds:[eax+0x6C],bl
0041BF0E    41              inc ecx                                  ; IPMSG_-_.<ModuleEntryPoint>
0041BF0F    000F            add byte ptr ds:[edi],cl
0041BF11    6D              ins dword ptr es:[edi],dx
0041BF12    41              inc ecx                                  ; IPMSG_-_.<ModuleEntryPoint>
0041BF13    00BD 14410058   add byte ptr ss:[ebp+0x58004114],bh
0041BF19    6C              ins byte ptr es:[edi],dx
0041BF1A    41              inc ecx                                  ; IPMSG_-_.<ModuleEntryPoint>
0041BF1B    00BD 144100BD   add byte ptr ss:[ebp-0x42FFBEEC],bh
0041BF21    14 41           adc al,0x41
0041BF23    00BD 144100BD   add byte ptr ss:[ebp-0x42FFBEEC],bh
0041BF29    14 41           adc al,0x41
0041BF2B    0058 6C         add byte ptr ds:[eax+0x6C],bl
0041BF2E    41              inc ecx                                  ; IPMSG_-_.<ModuleEntryPoint>
0041BF2F    000F            add byte ptr ds:[edi],cl
0041BF31    6D              ins dword ptr es:[edi],dx
0041BF32    41              inc ecx                                  ; IPMSG_-_.<ModuleEntryPoint>
0041BF33    00BD 144100BD   add byte ptr ss:[ebp-0x42FFBEEC],bh
0041BF39    14 41           adc al,0x41
0041BF3B    000F            add byte ptr ds:[edi],cl
0041BF3D    6D              ins dword ptr es:[edi],dx
0041BF3E    41              inc ecx                                  ; IPMSG_-_.<ModuleEntryPoint>
0041BF3F    00146D 4100586C add byte ptr ds:[ebp*2+0x6C580041],dl
0041BF46    41              inc ecx                                  ; IPMSG_-_.<ModuleEntryPoint>
0041BF47    00146D 4100146D add byte ptr ds:[ebp*2+0x6D140041],dl
0041BF4E    41              inc ecx                                  ; IPMSG_-_.<ModuleEntryPoint>
0041BF4F    00BD 14410058   add byte ptr ss:[ebp+0x58004114],bh
0041BF55    6C              ins byte ptr es:[edi],dx
0041BF56    41              inc ecx                                  ; IPMSG_-_.<ModuleEntryPoint>
0041BF57    0019            add byte ptr ds:[ecx],bl
0041BF59    6D              ins dword ptr es:[edi],dx
0041BF5A    41              inc ecx                                  ; IPMSG_-_.<ModuleEntryPoint>
0041BF5B    0031            add byte ptr ds:[ecx],dh
0041BF5D    6D              ins dword ptr es:[edi],dx
0041BF5E    41              inc ecx                                  ; IPMSG_-_.<ModuleEntryPoint>
0041BF5F    0045 6D         add byte ptr ss:[ebp+0x6D],al
0041BF62    41              inc ecx                                  ; IPMSG_-_.<ModuleEntryPoint>
0041BF63    0055 6D         add byte ptr ss:[ebp+0x6D],dl
0041BF66    41              inc ecx                                  ; IPMSG_-_.<ModuleEntryPoint>
0041BF67    006D 6D         add byte ptr ss:[ebp+0x6D],ch
0041BF6A    41              inc ecx                                  ; IPMSG_-_.<ModuleEntryPoint>
0041BF6B    00D3            add bl,dl
0041BF6D    6D              ins dword ptr es:[edi],dx
0041BF6E    41              inc ecx                                  ; IPMSG_-_.<ModuleEntryPoint>
0041BF6F    00DD            add ch,bl
0041BF71    6D              ins dword ptr es:[edi],dx
0041BF72    41              inc ecx                                  ; IPMSG_-_.<ModuleEntryPoint>
0041BF73    0077 6D         add byte ptr ds:[edi+0x6D],dh
0041BF76    41              inc ecx                                  ; IPMSG_-_.<ModuleEntryPoint>
0041BF77    008F 6D4100A7   add byte ptr ds:[edi-0x58FFBE93],cl
0041BF7D    6D              ins dword ptr es:[edi],dx
0041BF7E    41              inc ecx                                  ; IPMSG_-_.<ModuleEntryPoint>
0041BF7F    00C3            add bl,al
0041BF81    6D              ins dword ptr es:[edi],dx
0041BF82    41              inc ecx                                  ; IPMSG_-_.<ModuleEntryPoint>
0041BF83    0069 6E         add byte ptr ds:[ecx+0x6E],ch
0041BF86    41              inc ecx                                  ; IPMSG_-_.<ModuleEntryPoint>
0041BF87    0073 6E         add byte ptr ds:[ebx+0x6E],dh
0041BF8A    41              inc ecx                                  ; IPMSG_-_.<ModuleEntryPoint>
0041BF8B    0083 6E410097   add byte ptr ds:[ebx-0x68FFBE92],al
0041BF91    6E              outs dx,byte ptr es:[edi]
0041BF92    41              inc ecx                                  ; IPMSG_-_.<ModuleEntryPoint>
0041BF93    00AB 6E4100BB   add byte ptr ds:[ebx-0x44FFBE92],ch
0041BF99    6E              outs dx,byte ptr es:[edi]
0041BF9A    41              inc ecx                                  ; IPMSG_-_.<ModuleEntryPoint>
0041BF9B    00CA            add dl,cl
0041BF9D    42              inc edx                                  ; IPMSG_-_.<ModuleEntryPoint>
0041BF9E    40              inc eax
0041BF9F    00CB            add bl,cl
0041BFA1    6E              outs dx,byte ptr es:[edi]
0041BFA2    41              inc ecx                                  ; IPMSG_-_.<ModuleEntryPoint>
0041BFA3    005D 6C         add byte ptr ss:[ebp+0x6C],bl
0041BFA6    41              inc ecx                                  ; IPMSG_-_.<ModuleEntryPoint>
0041BFA7    00EA            add dl,ch
0041BFA9    6E              outs dx,byte ptr es:[edi]
0041BFAA    41              inc ecx                                  ; IPMSG_-_.<ModuleEntryPoint>
0041BFAB    004B 62         add byte ptr ds:[ebx+0x62],cl
0041BFAE    41              inc ecx                                  ; IPMSG_-_.<ModuleEntryPoint>
0041BFAF    00D0            add al,dl
0041BFB1    5E              pop esi                                  ; kernel32.765E6359
0041BFB2    41              inc ecx                                  ; IPMSG_-_.<ModuleEntryPoint>
0041BFB3    00246C          add byte ptr ss:[esp+ebp*2],ah
0041BFB6    41              inc ecx                                  ; IPMSG_-_.<ModuleEntryPoint>
0041BFB7    0028            add byte ptr ds:[eax],ch
0041BFB9    5E              pop esi                                  ; kernel32.765E6359
0041BFBA    41              inc ecx                                  ; IPMSG_-_.<ModuleEntryPoint>
0041BFBB    0081 5E4100BD   add byte ptr ds:[ecx-0x42FFBEA2],al
0041BFC1    6241 00         bound eax,qword ptr ds:[ecx]
0041BFC4    12D2            adc dl,dl
0041BFC6    40              inc eax
0041BFC7    00A5 E9400025   add byte ptr ss:[ebp+0x250040E9],ah
0041BFCD    68 4100C55E     push 0x5EC50041
0041BFD2    41              inc ecx                                  ; IPMSG_-_.<ModuleEntryPoint>
0041BFD3    0040 D8         add byte ptr ds:[eax-0x28],al
0041BFD6    40              inc eax
0041BFD7    003D DF40003F   add byte ptr ds:[0x3F0040DF],bh
0041BFDD    D5 40           aad 0x40
0041BFDF    00B462 4100B462 add byte ptr ds:[edx+0x62B40041],dh
0041BFE6    41              inc ecx                                  ; IPMSG_-_.<ModuleEntryPoint>
0041BFE7    0005 6D410005   add byte ptr ds:[0x500416D],al
0041BFED    6D              ins dword ptr es:[edi],dx
0041BFEE    41              inc ecx                                  ; IPMSG_-_.<ModuleEntryPoint>
0041BFEF    00B462 4100B462 add byte ptr ds:[edx+0x62B40041],dh
0041BFF6    41              inc ecx                                  ; IPMSG_-_.<ModuleEntryPoint>
0041BFF7    000F            add byte ptr ds:[edi],cl
0041BFF9    6D              ins dword ptr es:[edi],dx
0041BFFA    41              inc ecx                                  ; IPMSG_-_.<ModuleEntryPoint>
0041BFFB    0036            add byte ptr ds:[esi],dh
0041BFFD    E0 40           loopdne short IPMSG_-_.0041C03F
0041BFFF    0015 E44000AA   add byte ptr ds:[0xAA0040E4],dl
0041C005    DF40 00         fild word ptr ds:[eax]
0041C008    58              pop eax                                  ; kernel32.765E6359
0041C009    6C              ins byte ptr es:[edi],dx
0041C00A    41              inc ecx                                  ; IPMSG_-_.<ModuleEntryPoint>
0041C00B    00BD 144100BD   add byte ptr ss:[ebp-0x42FFBEEC],bh
0041C011    14 41           adc al,0x41
0041C013    00BD 144100BD   add byte ptr ss:[ebp-0x42FFBEEC],bh
0041C019    14 41           adc al,0x41
0041C01B    0058 6C         add byte ptr ds:[eax+0x6C],bl
0041C01E    41              inc ecx                                  ; IPMSG_-_.<ModuleEntryPoint>
0041C01F    000F            add byte ptr ds:[edi],cl
0041C021    6D              ins dword ptr es:[edi],dx
0041C022    41              inc ecx                                  ; IPMSG_-_.<ModuleEntryPoint>
0041C023    00BD 1441004F   add byte ptr ss:[ebp+0x4F004114],bh
0041C029    E4 40           in al,0x40
0041C02B    000F            add byte ptr ds:[edi],cl
0041C02D    6D              ins dword ptr es:[edi],dx
0041C02E    41              inc ecx                                  ; IPMSG_-_.<ModuleEntryPoint>
0041C02F    00146D 410078E8 add byte ptr ds:[ebp*2-0x1787FFBF],dl
0041C036    40              inc eax
0041C037    003A            add byte ptr ds:[edx],bh
0041C039    E8 4000146D     call 6D55C07E
0041C03E    41              inc ecx                                  ; IPMSG_-_.<ModuleEntryPoint>
0041C03F    00BD 1441007C   add byte ptr ss:[ebp+0x7C004114],bh
0041C045    DF40 00         fild word ptr ds:[eax]
0041C048    196D 41         sbb dword ptr ss:[ebp+0x41],ebp
0041C04B    0031            add byte ptr ds:[ecx],dh
0041C04D    6D              ins dword ptr es:[edi],dx
0041C04E    41              inc ecx                                  ; IPMSG_-_.<ModuleEntryPoint>
0041C04F    0045 6D         add byte ptr ss:[ebp+0x6D],al
0041C052    41              inc ecx                                  ; IPMSG_-_.<ModuleEntryPoint>
0041C053    0055 6D         add byte ptr ss:[ebp+0x6D],dl
0041C056    41              inc ecx                                  ; IPMSG_-_.<ModuleEntryPoint>
0041C057    006D 6D         add byte ptr ss:[ebp+0x6D],ch
0041C05A    41              inc ecx                                  ; IPMSG_-_.<ModuleEntryPoint>
0041C05B    00D3            add bl,dl
0041C05D    6D              ins dword ptr es:[edi],dx
0041C05E    41              inc ecx                                  ; IPMSG_-_.<ModuleEntryPoint>
0041C05F    00DD            add ch,bl
0041C061    6D              ins dword ptr es:[edi],dx
0041C062    41              inc ecx                                  ; IPMSG_-_.<ModuleEntryPoint>
0041C063    0077 6D         add byte ptr ds:[edi+0x6D],dh
0041C066    41              inc ecx                                  ; IPMSG_-_.<ModuleEntryPoint>
0041C067    008F 6D4100A7   add byte ptr ds:[edi-0x58FFBE93],cl
0041C06D    6D              ins dword ptr es:[edi],dx
0041C06E    41              inc ecx                                  ; IPMSG_-_.<ModuleEntryPoint>
0041C06F    00C3            add bl,al
0041C071    6D              ins dword ptr es:[edi],dx
0041C072    41              inc ecx                                  ; IPMSG_-_.<ModuleEntryPoint>
0041C073    0069 6E         add byte ptr ds:[ecx+0x6E],ch
0041C076    41              inc ecx                                  ; IPMSG_-_.<ModuleEntryPoint>
0041C077    0073 6E         add byte ptr ds:[ebx+0x6E],dh
0041C07A    41              inc ecx                                  ; IPMSG_-_.<ModuleEntryPoint>
0041C07B    0083 6E410097   add byte ptr ds:[ebx-0x68FFBE92],al
0041C081    6E              outs dx,byte ptr es:[edi]
0041C082    41              inc ecx                                  ; IPMSG_-_.<ModuleEntryPoint>
0041C083    00AB 6E4100BB   add byte ptr ds:[ebx-0x44FFBE92],ch
0041C089    6E              outs dx,byte ptr es:[edi]
0041C08A    41              inc ecx                                  ; IPMSG_-_.<ModuleEntryPoint>
0041C08B    00CA            add dl,cl
0041C08D    42              inc edx                                  ; IPMSG_-_.<ModuleEntryPoint>
0041C08E    40              inc eax
0041C08F    00CB            add bl,cl
0041C091    6E              outs dx,byte ptr es:[edi]
0041C092    41              inc ecx                                  ; IPMSG_-_.<ModuleEntryPoint>
0041C093    005D 6C         add byte ptr ss:[ebp+0x6C],bl
0041C096    41              inc ecx                                  ; IPMSG_-_.<ModuleEntryPoint>
0041C097    00EA            add dl,ch
0041C099    6E              outs dx,byte ptr es:[edi]
0041C09A    41              inc ecx                                  ; IPMSG_-_.<ModuleEntryPoint>
0041C09B    004B 62         add byte ptr ds:[ebx+0x62],cl
0041C09E    41              inc ecx                                  ; IPMSG_-_.<ModuleEntryPoint>
0041C09F    00D0            add al,dl
0041C0A1    5E              pop esi                                  ; kernel32.765E6359
0041C0A2    41              inc ecx                                  ; IPMSG_-_.<ModuleEntryPoint>
0041C0A3    00246C          add byte ptr ss:[esp+ebp*2],ah
0041C0A6    41              inc ecx                                  ; IPMSG_-_.<ModuleEntryPoint>
0041C0A7    0028            add byte ptr ds:[eax],ch
0041C0A9    5E              pop esi                                  ; kernel32.765E6359
0041C0AA    41              inc ecx                                  ; IPMSG_-_.<ModuleEntryPoint>
0041C0AB    0081 5E4100BD   add byte ptr ds:[ecx-0x42FFBEA2],al
0041C0B1    6241 00         bound eax,qword ptr ds:[ecx]
0041C0B4    F3:             prefix rep:
0041C0B5    D140 00         rol dword ptr ds:[eax],1
0041C0B8    5E              pop esi                                  ; kernel32.765E6359
0041C0B9    E4 40           in al,0x40
0041C0BB    0033            add byte ptr ds:[ebx],dh
0041C0BD    E9 4000104F     jmp 4F51C102
0041C0C2    41              inc ecx                                  ; IPMSG_-_.<ModuleEntryPoint>
0041C0C3    00B0 68410025   add byte ptr ds:[eax+0x25004168],dh
0041C0C9    68 4100C55E     push 0x5EC50041
0041C0CE    41              inc ecx                                  ; IPMSG_-_.<ModuleEntryPoint>
0041C0CF    0087 624100BD   add byte ptr ds:[edi-0x42FFBE9E],al
0041C0D5    14 41           adc al,0x41
0041C0D7    00B7 624100B4   add byte ptr ds:[edi-0x4BFFBE9E],dh
0041C0DD    6241 00         bound eax,qword ptr ds:[ecx]
0041C0E0    B4 62           mov ah,0x62
0041C0E2    41              inc ecx                                  ; IPMSG_-_.<ModuleEntryPoint>
0041C0E3    0005 6D410005   add byte ptr ds:[0x500416D],al
0041C0E9    6D              ins dword ptr es:[edi],dx
0041C0EA    41              inc ecx                                  ; IPMSG_-_.<ModuleEntryPoint>
0041C0EB    00B462 4100B462 add byte ptr ds:[edx+0x62B40041],dh
0041C0F2    41              inc ecx                                  ; IPMSG_-_.<ModuleEntryPoint>
0041C0F3    000F            add byte ptr ds:[edi],cl
0041C0F5    6D              ins dword ptr es:[edi],dx
0041C0F6    41              inc ecx                                  ; IPMSG_-_.<ModuleEntryPoint>
0041C0F7    0058 6C         add byte ptr ds:[eax+0x6C],bl
0041C0FA    41              inc ecx                                  ; IPMSG_-_.<ModuleEntryPoint>
0041C0FB    000F            add byte ptr ds:[edi],cl
0041C0FD    6D              ins dword ptr es:[edi],dx
0041C0FE    41              inc ecx                                  ; IPMSG_-_.<ModuleEntryPoint>
0041C0FF    00BD 14410058   add byte ptr ss:[ebp+0x58004114],bh
0041C105    6C              ins byte ptr es:[edi],dx
0041C106    41              inc ecx                                  ; IPMSG_-_.<ModuleEntryPoint>
0041C107    00BD 144100BD   add byte ptr ss:[ebp-0x42FFBEEC],bh
0041C10D    14 41           adc al,0x41
0041C10F    00BD 144100BD   add byte ptr ss:[ebp-0x42FFBEEC],bh
0041C115    14 41           adc al,0x41
0041C117    0058 6C         add byte ptr ds:[eax+0x6C],bl
0041C11A    41              inc ecx                                  ; IPMSG_-_.<ModuleEntryPoint>
0041C11B    000F            add byte ptr ds:[edi],cl
0041C11D    6D              ins dword ptr es:[edi],dx
0041C11E    41              inc ecx                                  ; IPMSG_-_.<ModuleEntryPoint>
0041C11F    00BD 144100BD   add byte ptr ss:[ebp-0x42FFBEEC],bh
0041C125    14 41           adc al,0x41
0041C127    000F            add byte ptr ds:[edi],cl
0041C129    6D              ins dword ptr es:[edi],dx
0041C12A    41              inc ecx                                  ; IPMSG_-_.<ModuleEntryPoint>
0041C12B    00146D 4100586C add byte ptr ds:[ebp*2+0x6C580041],dl
0041C132    41              inc ecx                                  ; IPMSG_-_.<ModuleEntryPoint>
0041C133    00146D 4100146D add byte ptr ds:[ebp*2+0x6D140041],dl
0041C13A    41              inc ecx                                  ; IPMSG_-_.<ModuleEntryPoint>
0041C13B    00BD 14410058   add byte ptr ss:[ebp+0x58004114],bh
0041C141    6C              ins byte ptr es:[edi],dx
0041C142    41              inc ecx                                  ; IPMSG_-_.<ModuleEntryPoint>
0041C143    0019            add byte ptr ds:[ecx],bl
0041C145    6D              ins dword ptr es:[edi],dx
0041C146    41              inc ecx                                  ; IPMSG_-_.<ModuleEntryPoint>
0041C147    0031            add byte ptr ds:[ecx],dh
0041C149    6D              ins dword ptr es:[edi],dx
0041C14A    41              inc ecx                                  ; IPMSG_-_.<ModuleEntryPoint>
0041C14B    0045 6D         add byte ptr ss:[ebp+0x6D],al
0041C14E    41              inc ecx                                  ; IPMSG_-_.<ModuleEntryPoint>
0041C14F    0055 6D         add byte ptr ss:[ebp+0x6D],dl
0041C152    41              inc ecx                                  ; IPMSG_-_.<ModuleEntryPoint>
0041C153    006D 6D         add byte ptr ss:[ebp+0x6D],ch
0041C156    41              inc ecx                                  ; IPMSG_-_.<ModuleEntryPoint>
0041C157    00D3            add bl,dl
0041C159    6D              ins dword ptr es:[edi],dx
0041C15A    41              inc ecx                                  ; IPMSG_-_.<ModuleEntryPoint>
0041C15B    00DD            add ch,bl
0041C15D    6D              ins dword ptr es:[edi],dx
0041C15E    41              inc ecx                                  ; IPMSG_-_.<ModuleEntryPoint>
0041C15F    0077 6D         add byte ptr ds:[edi+0x6D],dh
0041C162    41              inc ecx                                  ; IPMSG_-_.<ModuleEntryPoint>
0041C163    008F 6D4100A7   add byte ptr ds:[edi-0x58FFBE93],cl
0041C169    6D              ins dword ptr es:[edi],dx
0041C16A    41              inc ecx                                  ; IPMSG_-_.<ModuleEntryPoint>
0041C16B    00C3            add bl,al
0041C16D    6D              ins dword ptr es:[edi],dx
0041C16E    41              inc ecx                                  ; IPMSG_-_.<ModuleEntryPoint>
0041C16F    0069 6E         add byte ptr ds:[ecx+0x6E],ch
0041C172    41              inc ecx                                  ; IPMSG_-_.<ModuleEntryPoint>
0041C173    0073 6E         add byte ptr ds:[ebx+0x6E],dh
0041C176    41              inc ecx                                  ; IPMSG_-_.<ModuleEntryPoint>
0041C177    0083 6E410097   add byte ptr ds:[ebx-0x68FFBE92],al
0041C17D    6E              outs dx,byte ptr es:[edi]
0041C17E    41              inc ecx                                  ; IPMSG_-_.<ModuleEntryPoint>
0041C17F    00AB 6E4100BB   add byte ptr ds:[ebx-0x44FFBE92],ch
0041C185    6E              outs dx,byte ptr es:[edi]
0041C186    41              inc ecx                                  ; IPMSG_-_.<ModuleEntryPoint>
0041C187    00CA            add dl,cl
0041C189    42              inc edx                                  ; IPMSG_-_.<ModuleEntryPoint>
0041C18A    40              inc eax
0041C18B    00CB            add bl,cl
0041C18D    6E              outs dx,byte ptr es:[edi]
0041C18E    41              inc ecx                                  ; IPMSG_-_.<ModuleEntryPoint>
0041C18F    005D 6C         add byte ptr ss:[ebp+0x6C],bl
0041C192    41              inc ecx                                  ; IPMSG_-_.<ModuleEntryPoint>
0041C193    00EA            add dl,ch
0041C195    6E              outs dx,byte ptr es:[edi]
0041C196    41              inc ecx                                  ; IPMSG_-_.<ModuleEntryPoint>
0041C197    004B 62         add byte ptr ds:[ebx+0x62],cl
0041C19A    41              inc ecx                                  ; IPMSG_-_.<ModuleEntryPoint>
0041C19B    00D0            add al,dl
0041C19D    5E              pop esi                                  ; kernel32.765E6359
0041C19E    41              inc ecx                                  ; IPMSG_-_.<ModuleEntryPoint>
0041C19F    00246C          add byte ptr ss:[esp+ebp*2],ah
0041C1A2    41              inc ecx                                  ; IPMSG_-_.<ModuleEntryPoint>
0041C1A3    0028            add byte ptr ds:[eax],ch
0041C1A5    5E              pop esi                                  ; kernel32.765E6359
0041C1A6    41              inc ecx                                  ; IPMSG_-_.<ModuleEntryPoint>
0041C1A7    0081 5E4100BD   add byte ptr ds:[ecx-0x42FFBEA2],al
0041C1AD    6241 00         bound eax,qword ptr ds:[ecx]
0041C1B0    104F 41         adc byte ptr ds:[edi+0x41],cl
0041C1B3    00B0 68410025   add byte ptr ds:[eax+0x25004168],dh
0041C1B9    68 4100C55E     push 0x5EC50041
0041C1BE    41              inc ecx                                  ; IPMSG_-_.<ModuleEntryPoint>
0041C1BF    009F F84000BD   add byte ptr ds:[edi-0x42FFBF08],bl
0041C1C5    14 41           adc al,0x41
0041C1C7    00D8            add al,bl
0041C1C9    F640 00 B4      test byte ptr ds:[eax],0xB4
0041C1CD    6241 00         bound eax,qword ptr ds:[ecx]
0041C1D0    B4 62           mov ah,0x62
0041C1D2    41              inc ecx                                  ; IPMSG_-_.<ModuleEntryPoint>
0041C1D3    0005 6D410005   add byte ptr ds:[0x500416D],al
0041C1D9    6D              ins dword ptr es:[edi],dx
0041C1DA    41              inc ecx                                  ; IPMSG_-_.<ModuleEntryPoint>
0041C1DB    00B462 4100B462 add byte ptr ds:[edx+0x62B40041],dh
0041C1E2    41              inc ecx                                  ; IPMSG_-_.<ModuleEntryPoint>
0041C1E3    000F            add byte ptr ds:[edi],cl
0041C1E5    6D              ins dword ptr es:[edi],dx
0041C1E6    41              inc ecx                                  ; IPMSG_-_.<ModuleEntryPoint>
0041C1E7    0058 6C         add byte ptr ds:[eax+0x6C],bl
0041C1EA    41              inc ecx                                  ; IPMSG_-_.<ModuleEntryPoint>
0041C1EB    000F            add byte ptr ds:[edi],cl
0041C1ED    6D              ins dword ptr es:[edi],dx
0041C1EE    41              inc ecx                                  ; IPMSG_-_.<ModuleEntryPoint>
0041C1EF    00BD 14410058   add byte ptr ss:[ebp+0x58004114],bh
0041C1F5    6C              ins byte ptr es:[edi],dx
0041C1F6    41              inc ecx                                  ; IPMSG_-_.<ModuleEntryPoint>
0041C1F7    00BD 144100BD   add byte ptr ss:[ebp-0x42FFBEEC],bh
0041C1FD    14 41           adc al,0x41
0041C1FF    00BD 144100BD   add byte ptr ss:[ebp-0x42FFBEEC],bh
0041C205    14 41           adc al,0x41
0041C207    0058 6C         add byte ptr ds:[eax+0x6C],bl
0041C20A    41              inc ecx                                  ; IPMSG_-_.<ModuleEntryPoint>
0041C20B    000F            add byte ptr ds:[edi],cl
0041C20D    6D              ins dword ptr es:[edi],dx
0041C20E    41              inc ecx                                  ; IPMSG_-_.<ModuleEntryPoint>
0041C20F    00BD 144100BD   add byte ptr ss:[ebp-0x42FFBEEC],bh
0041C215    14 41           adc al,0x41
0041C217    000F            add byte ptr ds:[edi],cl
0041C219    6D              ins dword ptr es:[edi],dx
0041C21A    41              inc ecx                                  ; IPMSG_-_.<ModuleEntryPoint>
0041C21B    00146D 4100586C add byte ptr ds:[ebp*2+0x6C580041],dl
0041C222    41              inc ecx                                  ; IPMSG_-_.<ModuleEntryPoint>
0041C223    00146D 4100146D add byte ptr ds:[ebp*2+0x6D140041],dl
0041C22A    41              inc ecx                                  ; IPMSG_-_.<ModuleEntryPoint>
0041C22B    00BD 14410058   add byte ptr ss:[ebp+0x58004114],bh
0041C231    6C              ins byte ptr es:[edi],dx
0041C232    41              inc ecx                                  ; IPMSG_-_.<ModuleEntryPoint>
0041C233    0019            add byte ptr ds:[ecx],bl
0041C235    6D              ins dword ptr es:[edi],dx
0041C236    41              inc ecx                                  ; IPMSG_-_.<ModuleEntryPoint>
0041C237    0031            add byte ptr ds:[ecx],dh
0041C239    6D              ins dword ptr es:[edi],dx
0041C23A    41              inc ecx                                  ; IPMSG_-_.<ModuleEntryPoint>
0041C23B    0045 6D         add byte ptr ss:[ebp+0x6D],al
0041C23E    41              inc ecx                                  ; IPMSG_-_.<ModuleEntryPoint>
0041C23F    0055 6D         add byte ptr ss:[ebp+0x6D],dl
0041C242    41              inc ecx                                  ; IPMSG_-_.<ModuleEntryPoint>
0041C243    006D 6D         add byte ptr ss:[ebp+0x6D],ch
0041C246    41              inc ecx                                  ; IPMSG_-_.<ModuleEntryPoint>
0041C247    00D3            add bl,dl
0041C249    6D              ins dword ptr es:[edi],dx
0041C24A    41              inc ecx                                  ; IPMSG_-_.<ModuleEntryPoint>
0041C24B    00DD            add ch,bl
0041C24D    6D              ins dword ptr es:[edi],dx
0041C24E    41              inc ecx                                  ; IPMSG_-_.<ModuleEntryPoint>
0041C24F    0077 6D         add byte ptr ds:[edi+0x6D],dh
0041C252    41              inc ecx                                  ; IPMSG_-_.<ModuleEntryPoint>
0041C253    008F 6D4100A7   add byte ptr ds:[edi-0x58FFBE93],cl
0041C259    6D              ins dword ptr es:[edi],dx
0041C25A    41              inc ecx                                  ; IPMSG_-_.<ModuleEntryPoint>
0041C25B    00C3            add bl,al
0041C25D    6D              ins dword ptr es:[edi],dx
0041C25E    41              inc ecx                                  ; IPMSG_-_.<ModuleEntryPoint>
0041C25F    0069 6E         add byte ptr ds:[ecx+0x6E],ch
0041C262    41              inc ecx                                  ; IPMSG_-_.<ModuleEntryPoint>
0041C263    0073 6E         add byte ptr ds:[ebx+0x6E],dh
0041C266    41              inc ecx                                  ; IPMSG_-_.<ModuleEntryPoint>
0041C267    0083 6E410097   add byte ptr ds:[ebx-0x68FFBE92],al
0041C26D    6E              outs dx,byte ptr es:[edi]
0041C26E    41              inc ecx                                  ; IPMSG_-_.<ModuleEntryPoint>
0041C26F    00AB 6E4100BB   add byte ptr ds:[ebx-0x44FFBE92],ch
0041C275    6E              outs dx,byte ptr es:[edi]
0041C276    41              inc ecx                                  ; IPMSG_-_.<ModuleEntryPoint>
0041C277    00CA            add dl,cl
0041C279    42              inc edx                                  ; IPMSG_-_.<ModuleEntryPoint>
0041C27A    40              inc eax
0041C27B    00CB            add bl,cl
0041C27D    6E              outs dx,byte ptr es:[edi]
0041C27E    41              inc ecx                                  ; IPMSG_-_.<ModuleEntryPoint>
0041C27F    005D 6C         add byte ptr ss:[ebp+0x6C],bl
0041C282    41              inc ecx                                  ; IPMSG_-_.<ModuleEntryPoint>
0041C283    00EA            add dl,ch
0041C285    6E              outs dx,byte ptr es:[edi]
0041C286    41              inc ecx                                  ; IPMSG_-_.<ModuleEntryPoint>
0041C287    004B 62         add byte ptr ds:[ebx+0x62],cl
0041C28A    41              inc ecx                                  ; IPMSG_-_.<ModuleEntryPoint>
0041C28B    00D0            add al,dl
0041C28D    5E              pop esi                                  ; kernel32.765E6359
0041C28E    41              inc ecx                                  ; IPMSG_-_.<ModuleEntryPoint>
0041C28F    00246C          add byte ptr ss:[esp+ebp*2],ah
0041C292    41              inc ecx                                  ; IPMSG_-_.<ModuleEntryPoint>
0041C293    0028            add byte ptr ds:[eax],ch
0041C295    5E              pop esi                                  ; kernel32.765E6359
0041C296    41              inc ecx                                  ; IPMSG_-_.<ModuleEntryPoint>
0041C297    0081 5E4100BD   add byte ptr ds:[ecx-0x42FFBEA2],al
0041C29D    6241 00         bound eax,qword ptr ds:[ecx]
0041C2A0    F7FC            idiv esp
0041C2A2    40              inc eax
0041C2A3    00BE 16410025   add byte ptr ds:[esi+0x25004116],bh
0041C2A9    68 4100C55E     push 0x5EC50041
0041C2AE    41              inc ecx                                  ; IPMSG_-_.<ModuleEntryPoint>
0041C2AF    0060 02         add byte ptr ds:[eax+0x2],ah
0041C2B2    41              inc ecx                                  ; IPMSG_-_.<ModuleEntryPoint>
0041C2B3    0061 0C         add byte ptr ds:[ecx+0xC],ah
0041C2B6    41              inc ecx                                  ; IPMSG_-_.<ModuleEntryPoint>
0041C2B7    0045 FE         add byte ptr ss:[ebp-0x2],al
0041C2BA    40              inc eax
0041C2BB    00B462 4100B462 add byte ptr ds:[edx+0x62B40041],dh
0041C2C2    41              inc ecx                                  ; IPMSG_-_.<ModuleEntryPoint>
0041C2C3    0005 6D410005   add byte ptr ds:[0x500416D],al
0041C2C9    6D              ins dword ptr es:[edi],dx
0041C2CA    41              inc ecx                                  ; IPMSG_-_.<ModuleEntryPoint>
0041C2CB    00B462 4100B462 add byte ptr ds:[edx+0x62B40041],dh
0041C2D2    41              inc ecx                                  ; IPMSG_-_.<ModuleEntryPoint>
0041C2D3    000F            add byte ptr ds:[edi],cl
0041C2D5    6D              ins dword ptr es:[edi],dx
0041C2D6    41              inc ecx                                  ; IPMSG_-_.<ModuleEntryPoint>
0041C2D7    0049 10         add byte ptr ds:[ecx+0x10],cl
0041C2DA    41              inc ecx                                  ; IPMSG_-_.<ModuleEntryPoint>
0041C2DB    0053 14         add byte ptr ds:[ebx+0x14],dl
0041C2DE    41              inc ecx                                  ; IPMSG_-_.<ModuleEntryPoint>
0041C2DF    0043 15         add byte ptr ds:[ebx+0x15],al
0041C2E2    41              inc ecx                                  ; IPMSG_-_.<ModuleEntryPoint>
0041C2E3    0058 6C         add byte ptr ds:[eax+0x6C],bl
0041C2E6    41              inc ecx                                  ; IPMSG_-_.<ModuleEntryPoint>
0041C2E7    005E 0F         add byte ptr ds:[esi+0xF],bl
0041C2EA    41              inc ecx                                  ; IPMSG_-_.<ModuleEntryPoint>
0041C2EB    00BD 144100BD   add byte ptr ss:[ebp-0x42FFBEEC],bh
0041C2F1    14 41           adc al,0x41
0041C2F3    00BD 144100E5   add byte ptr ss:[ebp-0x1AFFBEEC],bh
0041C2F9    0C 41           or al,0x41
0041C2FB    001C0D 4100B90E add byte ptr ds:[ecx+0xEB90041],bl
0041C302    41              inc ecx                                  ; IPMSG_-_.<ModuleEntryPoint>
0041C303    00AE 1441000F   add byte ptr ds:[esi+0xF004114],ch
0041C309    6D              ins dword ptr es:[edi],dx
0041C30A    41              inc ecx                                  ; IPMSG_-_.<ModuleEntryPoint>
0041C30B    00146D 41001D10 add byte ptr ds:[ebp*2+0x101D0041],dl
0041C312    41              inc ecx                                  ; IPMSG_-_.<ModuleEntryPoint>
0041C313    00AA 0C410014   add byte ptr ds:[edx+0x1400410C],ch
0041C319    6D              ins dword ptr es:[edi],dx
0041C31A    41              inc ecx                                  ; IPMSG_-_.<ModuleEntryPoint>
0041C31B    00BD 144100C2   add byte ptr ss:[ebp-0x3DFFBEEC],bh
0041C321    14 41           adc al,0x41
0041C323    0019            add byte ptr ds:[ecx],bl
0041C325    6D              ins dword ptr es:[edi],dx
0041C326    41              inc ecx                                  ; IPMSG_-_.<ModuleEntryPoint>
0041C327    0031            add byte ptr ds:[ecx],dh
0041C329    6D              ins dword ptr es:[edi],dx
0041C32A    41              inc ecx                                  ; IPMSG_-_.<ModuleEntryPoint>
0041C32B    0045 6D         add byte ptr ss:[ebp+0x6D],al
0041C32E    41              inc ecx                                  ; IPMSG_-_.<ModuleEntryPoint>
0041C32F    0055 6D         add byte ptr ss:[ebp+0x6D],dl
0041C332    41              inc ecx                                  ; IPMSG_-_.<ModuleEntryPoint>
0041C333    006D 6D         add byte ptr ss:[ebp+0x6D],ch
0041C336    41              inc ecx                                  ; IPMSG_-_.<ModuleEntryPoint>
0041C337    00D3            add bl,dl
0041C339    6D              ins dword ptr es:[edi],dx
0041C33A    41              inc ecx                                  ; IPMSG_-_.<ModuleEntryPoint>
0041C33B    00DD            add ch,bl
0041C33D    6D              ins dword ptr es:[edi],dx
0041C33E    41              inc ecx                                  ; IPMSG_-_.<ModuleEntryPoint>
0041C33F    0077 6D         add byte ptr ds:[edi+0x6D],dh
0041C342    41              inc ecx                                  ; IPMSG_-_.<ModuleEntryPoint>
0041C343    008F 6D4100A7   add byte ptr ds:[edi-0x58FFBE93],cl
0041C349    6D              ins dword ptr es:[edi],dx
0041C34A    41              inc ecx                                  ; IPMSG_-_.<ModuleEntryPoint>
0041C34B    00C3            add bl,al
0041C34D    6D              ins dword ptr es:[edi],dx
0041C34E    41              inc ecx                                  ; IPMSG_-_.<ModuleEntryPoint>
0041C34F    0069 6E         add byte ptr ds:[ecx+0x6E],ch
0041C352    41              inc ecx                                  ; IPMSG_-_.<ModuleEntryPoint>
0041C353    0073 6E         add byte ptr ds:[ebx+0x6E],dh
0041C356    41              inc ecx                                  ; IPMSG_-_.<ModuleEntryPoint>
0041C357    0083 6E410097   add byte ptr ds:[ebx-0x68FFBE92],al
0041C35D    6E              outs dx,byte ptr es:[edi]
0041C35E    41              inc ecx                                  ; IPMSG_-_.<ModuleEntryPoint>
0041C35F    00AB 6E4100BB   add byte ptr ds:[ebx-0x44FFBE92],ch
0041C365    6E              outs dx,byte ptr es:[edi]
0041C366    41              inc ecx                                  ; IPMSG_-_.<ModuleEntryPoint>
0041C367    00CA            add dl,cl
0041C369    42              inc edx                                  ; IPMSG_-_.<ModuleEntryPoint>
0041C36A    40              inc eax
0041C36B    00CB            add bl,cl
0041C36D    6E              outs dx,byte ptr es:[edi]
0041C36E    41              inc ecx                                  ; IPMSG_-_.<ModuleEntryPoint>
0041C36F    005D 6C         add byte ptr ss:[ebp+0x6C],bl
0041C372    41              inc ecx                                  ; IPMSG_-_.<ModuleEntryPoint>
0041C373    00EA            add dl,ch
0041C375    6E              outs dx,byte ptr es:[edi]
0041C376    41              inc ecx                                  ; IPMSG_-_.<ModuleEntryPoint>
0041C377    004B 62         add byte ptr ds:[ebx+0x62],cl
0041C37A    41              inc ecx                                  ; IPMSG_-_.<ModuleEntryPoint>
0041C37B    00D0            add al,dl
0041C37D    5E              pop esi                                  ; kernel32.765E6359
0041C37E    41              inc ecx                                  ; IPMSG_-_.<ModuleEntryPoint>
0041C37F    00246C          add byte ptr ss:[esp+ebp*2],ah
0041C382    41              inc ecx                                  ; IPMSG_-_.<ModuleEntryPoint>
0041C383    0028            add byte ptr ds:[eax],ch
0041C385    5E              pop esi                                  ; kernel32.765E6359
0041C386    41              inc ecx                                  ; IPMSG_-_.<ModuleEntryPoint>
0041C387    0081 5E4100BD   add byte ptr ds:[ecx-0x42FFBEA2],al
0041C38D    6241 00         bound eax,qword ptr ds:[ecx]
0041C390    8833            mov byte ptr ds:[ebx],dh
0041C392    41              inc ecx                                  ; IPMSG_-_.<ModuleEntryPoint>
0041C393    00B0 68410025   add byte ptr ds:[eax+0x25004168],dh
0041C399    68 4100C55E     push 0x5EC50041
0041C39E    41              inc ecx                                  ; IPMSG_-_.<ModuleEntryPoint>
0041C39F    0082 344100BD   add byte ptr ds:[edx-0x42FFBECC],al
0041C3A5    14 41           adc al,0x41
0041C3A7    00AF 334100B4   add byte ptr ds:[edi-0x4BFFBECD],ch
0041C3AD    6241 00         bound eax,qword ptr ds:[ecx]
0041C3B0    B4 62           mov ah,0x62
0041C3B2    41              inc ecx                                  ; IPMSG_-_.<ModuleEntryPoint>
0041C3B3    0005 6D410005   add byte ptr ds:[0x500416D],al
0041C3B9    6D              ins dword ptr es:[edi],dx
0041C3BA    41              inc ecx                                  ; IPMSG_-_.<ModuleEntryPoint>
0041C3BB    00B462 4100B462 add byte ptr ds:[edx+0x62B40041],dh
0041C3C2    41              inc ecx                                  ; IPMSG_-_.<ModuleEntryPoint>
0041C3C3    000F            add byte ptr ds:[edi],cl
0041C3C5    6D              ins dword ptr es:[edi],dx
0041C3C6    41              inc ecx                                  ; IPMSG_-_.<ModuleEntryPoint>
0041C3C7    0058 6C         add byte ptr ds:[eax+0x6C],bl
0041C3CA    41              inc ecx                                  ; IPMSG_-_.<ModuleEntryPoint>
0041C3CB    000F            add byte ptr ds:[edi],cl
0041C3CD    6D              ins dword ptr es:[edi],dx
0041C3CE    41              inc ecx                                  ; IPMSG_-_.<ModuleEntryPoint>
0041C3CF    00BD 14410058   add byte ptr ss:[ebp+0x58004114],bh
0041C3D5    6C              ins byte ptr es:[edi],dx
0041C3D6    41              inc ecx                                  ; IPMSG_-_.<ModuleEntryPoint>
0041C3D7    00BD 144100BD   add byte ptr ss:[ebp-0x42FFBEEC],bh
0041C3DD    14 41           adc al,0x41
0041C3DF    00BD 144100BD   add byte ptr ss:[ebp-0x42FFBEEC],bh
0041C3E5    14 41           adc al,0x41
0041C3E7    0058 6C         add byte ptr ds:[eax+0x6C],bl
0041C3EA    41              inc ecx                                  ; IPMSG_-_.<ModuleEntryPoint>
0041C3EB    000F            add byte ptr ds:[edi],cl
0041C3ED    6D              ins dword ptr es:[edi],dx
0041C3EE    41              inc ecx                                  ; IPMSG_-_.<ModuleEntryPoint>
0041C3EF    00BD 144100BD   add byte ptr ss:[ebp-0x42FFBEEC],bh
0041C3F5    14 41           adc al,0x41
0041C3F7    000F            add byte ptr ds:[edi],cl
0041C3F9    6D              ins dword ptr es:[edi],dx
0041C3FA    41              inc ecx                                  ; IPMSG_-_.<ModuleEntryPoint>
0041C3FB    00146D 4100586C add byte ptr ds:[ebp*2+0x6C580041],dl
0041C402    41              inc ecx                                  ; IPMSG_-_.<ModuleEntryPoint>
0041C403    00146D 4100146D add byte ptr ds:[ebp*2+0x6D140041],dl
0041C40A    41              inc ecx                                  ; IPMSG_-_.<ModuleEntryPoint>
0041C40B    00BD 14410058   add byte ptr ss:[ebp+0x58004114],bh
0041C411    6C              ins byte ptr es:[edi],dx
0041C412    41              inc ecx                                  ; IPMSG_-_.<ModuleEntryPoint>
0041C413    0019            add byte ptr ds:[ecx],bl
0041C415    6D              ins dword ptr es:[edi],dx
0041C416    41              inc ecx                                  ; IPMSG_-_.<ModuleEntryPoint>
0041C417    0031            add byte ptr ds:[ecx],dh
0041C419    6D              ins dword ptr es:[edi],dx
0041C41A    41              inc ecx                                  ; IPMSG_-_.<ModuleEntryPoint>
0041C41B    0045 6D         add byte ptr ss:[ebp+0x6D],al
0041C41E    41              inc ecx                                  ; IPMSG_-_.<ModuleEntryPoint>
0041C41F    0055 6D         add byte ptr ss:[ebp+0x6D],dl
0041C422    41              inc ecx                                  ; IPMSG_-_.<ModuleEntryPoint>
0041C423    006D 6D         add byte ptr ss:[ebp+0x6D],ch
0041C426    41              inc ecx                                  ; IPMSG_-_.<ModuleEntryPoint>
0041C427    00D3            add bl,dl
0041C429    6D              ins dword ptr es:[edi],dx
0041C42A    41              inc ecx                                  ; IPMSG_-_.<ModuleEntryPoint>
0041C42B    00DD            add ch,bl
0041C42D    6D              ins dword ptr es:[edi],dx
0041C42E    41              inc ecx                                  ; IPMSG_-_.<ModuleEntryPoint>
0041C42F    0077 6D         add byte ptr ds:[edi+0x6D],dh
0041C432    41              inc ecx                                  ; IPMSG_-_.<ModuleEntryPoint>
0041C433    008F 6D4100A7   add byte ptr ds:[edi-0x58FFBE93],cl
0041C439    6D              ins dword ptr es:[edi],dx
0041C43A    41              inc ecx                                  ; IPMSG_-_.<ModuleEntryPoint>
0041C43B    00C3            add bl,al
0041C43D    6D              ins dword ptr es:[edi],dx
0041C43E    41              inc ecx                                  ; IPMSG_-_.<ModuleEntryPoint>
0041C43F    0069 6E         add byte ptr ds:[ecx+0x6E],ch
0041C442    41              inc ecx                                  ; IPMSG_-_.<ModuleEntryPoint>
0041C443    0073 6E         add byte ptr ds:[ebx+0x6E],dh
0041C446    41              inc ecx                                  ; IPMSG_-_.<ModuleEntryPoint>
0041C447    0083 6E410097   add byte ptr ds:[ebx-0x68FFBE92],al
0041C44D    6E              outs dx,byte ptr es:[edi]
0041C44E    41              inc ecx                                  ; IPMSG_-_.<ModuleEntryPoint>
0041C44F    00AB 6E4100BB   add byte ptr ds:[ebx-0x44FFBE92],ch
0041C455    6E              outs dx,byte ptr es:[edi]
0041C456    41              inc ecx                                  ; IPMSG_-_.<ModuleEntryPoint>
0041C457    00CA            add dl,cl
0041C459    42              inc edx                                  ; IPMSG_-_.<ModuleEntryPoint>
0041C45A    40              inc eax
0041C45B    00CB            add bl,cl
0041C45D    6E              outs dx,byte ptr es:[edi]
0041C45E    41              inc ecx                                  ; IPMSG_-_.<ModuleEntryPoint>
0041C45F    005D 6C         add byte ptr ss:[ebp+0x6C],bl
0041C462    41              inc ecx                                  ; IPMSG_-_.<ModuleEntryPoint>
0041C463    00EA            add dl,ch
0041C465    6E              outs dx,byte ptr es:[edi]
0041C466    41              inc ecx                                  ; IPMSG_-_.<ModuleEntryPoint>
0041C467    004B 62         add byte ptr ds:[ebx+0x62],cl
0041C46A    41              inc ecx                                  ; IPMSG_-_.<ModuleEntryPoint>
0041C46B    00D0            add al,dl
0041C46D    5E              pop esi                                  ; kernel32.765E6359
0041C46E    41              inc ecx                                  ; IPMSG_-_.<ModuleEntryPoint>
0041C46F    00246C          add byte ptr ss:[esp+ebp*2],ah
0041C472    41              inc ecx                                  ; IPMSG_-_.<ModuleEntryPoint>
0041C473    0028            add byte ptr ds:[eax],ch
0041C475    5E              pop esi                                  ; kernel32.765E6359
0041C476    41              inc ecx                                  ; IPMSG_-_.<ModuleEntryPoint>
0041C477    0081 5E4100BD   add byte ptr ds:[ecx-0x42FFBEA2],al
0041C47D    6241 00         bound eax,qword ptr ds:[ecx]
0041C480    1F              pop ds
0041C481    43              inc ebx
0041C482    41              inc ecx                                  ; IPMSG_-_.<ModuleEntryPoint>
0041C483    00B0 68410025   add byte ptr ds:[eax+0x25004168],dh
0041C489    68 4100C55E     push 0x5EC50041
0041C48E    41              inc ecx                                  ; IPMSG_-_.<ModuleEntryPoint>
0041C48F    008C46 4100BD14 add byte ptr ds:[esi+eax*2+0x14BD0041],c>
0041C496    41              inc ecx                                  ; IPMSG_-_.<ModuleEntryPoint>
0041C497    006B 43         add byte ptr ds:[ebx+0x43],ch
0041C49A    41              inc ecx                                  ; IPMSG_-_.<ModuleEntryPoint>
0041C49B    00B462 4100B462 add byte ptr ds:[edx+0x62B40041],dh
0041C4A2    41              inc ecx                                  ; IPMSG_-_.<ModuleEntryPoint>
0041C4A3    0005 6D410005   add byte ptr ds:[0x500416D],al
0041C4A9    6D              ins dword ptr es:[edi],dx
0041C4AA    41              inc ecx                                  ; IPMSG_-_.<ModuleEntryPoint>
0041C4AB    00B462 4100B462 add byte ptr ds:[edx+0x62B40041],dh
0041C4B2    41              inc ecx                                  ; IPMSG_-_.<ModuleEntryPoint>
0041C4B3    000F            add byte ptr ds:[edi],cl
0041C4B5    6D              ins dword ptr es:[edi],dx
0041C4B6    41              inc ecx                                  ; IPMSG_-_.<ModuleEntryPoint>
0041C4B7    0058 6C         add byte ptr ds:[eax+0x6C],bl
0041C4BA    41              inc ecx                                  ; IPMSG_-_.<ModuleEntryPoint>
0041C4BB    000F            add byte ptr ds:[edi],cl
0041C4BD    6D              ins dword ptr es:[edi],dx
0041C4BE    41              inc ecx                                  ; IPMSG_-_.<ModuleEntryPoint>
0041C4BF    00BD 14410058   add byte ptr ss:[ebp+0x58004114],bh
0041C4C5    6C              ins byte ptr es:[edi],dx
0041C4C6    41              inc ecx                                  ; IPMSG_-_.<ModuleEntryPoint>
0041C4C7    00BD 144100BD   add byte ptr ss:[ebp-0x42FFBEEC],bh
0041C4CD    14 41           adc al,0x41
0041C4CF    00BD 144100BD   add byte ptr ss:[ebp-0x42FFBEEC],bh
0041C4D5    14 41           adc al,0x41
0041C4D7    0058 6C         add byte ptr ds:[eax+0x6C],bl
0041C4DA    41              inc ecx                                  ; IPMSG_-_.<ModuleEntryPoint>
0041C4DB    0059 46         add byte ptr ds:[ecx+0x46],bl
0041C4DE    41              inc ecx                                  ; IPMSG_-_.<ModuleEntryPoint>
0041C4DF    00D0            add al,dl
0041C4E1    45              inc ebp
0041C4E2    41              inc ecx                                  ; IPMSG_-_.<ModuleEntryPoint>
0041C4E3    00BD 1441000F   add byte ptr ss:[ebp+0xF004114],bh
0041C4E9    6D              ins dword ptr es:[edi],dx
0041C4EA    41              inc ecx                                  ; IPMSG_-_.<ModuleEntryPoint>
0041C4EB    00146D 4100586C add byte ptr ds:[ebp*2+0x6C580041],dl
0041C4F2    41              inc ecx                                  ; IPMSG_-_.<ModuleEntryPoint>
0041C4F3    00146D 4100146D add byte ptr ds:[ebp*2+0x6D140041],dl
0041C4FA    41              inc ecx                                  ; IPMSG_-_.<ModuleEntryPoint>
0041C4FB    00BD 14410058   add byte ptr ss:[ebp+0x58004114],bh
0041C501    6C              ins byte ptr es:[edi],dx
0041C502    41              inc ecx                                  ; IPMSG_-_.<ModuleEntryPoint>
0041C503    0019            add byte ptr ds:[ecx],bl
0041C505    6D              ins dword ptr es:[edi],dx
0041C506    41              inc ecx                                  ; IPMSG_-_.<ModuleEntryPoint>
0041C507    0031            add byte ptr ds:[ecx],dh
0041C509    6D              ins dword ptr es:[edi],dx
0041C50A    41              inc ecx                                  ; IPMSG_-_.<ModuleEntryPoint>
0041C50B    0045 6D         add byte ptr ss:[ebp+0x6D],al
0041C50E    41              inc ecx                                  ; IPMSG_-_.<ModuleEntryPoint>
0041C50F    0055 6D         add byte ptr ss:[ebp+0x6D],dl
0041C512    41              inc ecx                                  ; IPMSG_-_.<ModuleEntryPoint>
0041C513    006D 6D         add byte ptr ss:[ebp+0x6D],ch
0041C516    41              inc ecx                                  ; IPMSG_-_.<ModuleEntryPoint>
0041C517    00D3            add bl,dl
0041C519    6D              ins dword ptr es:[edi],dx
0041C51A    41              inc ecx                                  ; IPMSG_-_.<ModuleEntryPoint>
0041C51B    00DD            add ch,bl
0041C51D    6D              ins dword ptr es:[edi],dx
0041C51E    41              inc ecx                                  ; IPMSG_-_.<ModuleEntryPoint>
0041C51F    0077 6D         add byte ptr ds:[edi+0x6D],dh
0041C522    41              inc ecx                                  ; IPMSG_-_.<ModuleEntryPoint>
0041C523    008F 6D4100A7   add byte ptr ds:[edi-0x58FFBE93],cl
0041C529    6D              ins dword ptr es:[edi],dx
0041C52A    41              inc ecx                                  ; IPMSG_-_.<ModuleEntryPoint>
0041C52B    00C3            add bl,al
0041C52D    6D              ins dword ptr es:[edi],dx
0041C52E    41              inc ecx                                  ; IPMSG_-_.<ModuleEntryPoint>
0041C52F    0069 6E         add byte ptr ds:[ecx+0x6E],ch
0041C532    41              inc ecx                                  ; IPMSG_-_.<ModuleEntryPoint>
0041C533    0073 6E         add byte ptr ds:[ebx+0x6E],dh
0041C536    41              inc ecx                                  ; IPMSG_-_.<ModuleEntryPoint>
0041C537    0083 6E410097   add byte ptr ds:[ebx-0x68FFBE92],al
0041C53D    6E              outs dx,byte ptr es:[edi]
0041C53E    41              inc ecx                                  ; IPMSG_-_.<ModuleEntryPoint>
0041C53F    00AB 6E4100BB   add byte ptr ds:[ebx-0x44FFBE92],ch
0041C545    6E              outs dx,byte ptr es:[edi]
0041C546    41              inc ecx                                  ; IPMSG_-_.<ModuleEntryPoint>
0041C547    00CA            add dl,cl
0041C549    42              inc edx                                  ; IPMSG_-_.<ModuleEntryPoint>
0041C54A    40              inc eax
0041C54B    00CB            add bl,cl
0041C54D    6E              outs dx,byte ptr es:[edi]
0041C54E    41              inc ecx                                  ; IPMSG_-_.<ModuleEntryPoint>
0041C54F    005D 6C         add byte ptr ss:[ebp+0x6C],bl
0041C552    41              inc ecx                                  ; IPMSG_-_.<ModuleEntryPoint>
0041C553    00EA            add dl,ch
0041C555    6E              outs dx,byte ptr es:[edi]
0041C556    41              inc ecx                                  ; IPMSG_-_.<ModuleEntryPoint>
0041C557    004B 62         add byte ptr ds:[ebx+0x62],cl
0041C55A    41              inc ecx                                  ; IPMSG_-_.<ModuleEntryPoint>
0041C55B    00D0            add al,dl
0041C55D    5E              pop esi                                  ; kernel32.765E6359
0041C55E    41              inc ecx                                  ; IPMSG_-_.<ModuleEntryPoint>
0041C55F    00246C          add byte ptr ss:[esp+ebp*2],ah
0041C562    41              inc ecx                                  ; IPMSG_-_.<ModuleEntryPoint>
0041C563    0028            add byte ptr ds:[eax],ch
0041C565    5E              pop esi                                  ; kernel32.765E6359
0041C566    41              inc ecx                                  ; IPMSG_-_.<ModuleEntryPoint>
0041C567    0081 5E4100BD   add byte ptr ds:[ecx-0x42FFBEA2],al
0041C56D    6241 00         bound eax,qword ptr ds:[ecx]
0041C570    A5              movs dword ptr es:[edi],dword ptr ds:[es>
0041C571    48              dec eax
0041C572    41              inc ecx                                  ; IPMSG_-_.<ModuleEntryPoint>
0041C573    00B0 68410025   add byte ptr ds:[eax+0x25004168],dh
0041C579    68 4100C55E     push 0x5EC50041
0041C57E    41              inc ecx                                  ; IPMSG_-_.<ModuleEntryPoint>
0041C57F    0003            add byte ptr ds:[ebx],al
0041C581    4E              dec esi                                  ; IPMSG_-_.<ModuleEntryPoint>
0041C582    41              inc ecx                                  ; IPMSG_-_.<ModuleEntryPoint>
0041C583    00BD 144100F1   add byte ptr ss:[ebp-0xEFFBEEC],bh
0041C589    48              dec eax
0041C58A    41              inc ecx                                  ; IPMSG_-_.<ModuleEntryPoint>
0041C58B    00B462 4100B462 add byte ptr ds:[edx+0x62B40041],dh
0041C592    41              inc ecx                                  ; IPMSG_-_.<ModuleEntryPoint>
0041C593    0005 6D410005   add byte ptr ds:[0x500416D],al
0041C599    6D              ins dword ptr es:[edi],dx
0041C59A    41              inc ecx                                  ; IPMSG_-_.<ModuleEntryPoint>
0041C59B    00B462 4100B462 add byte ptr ds:[edx+0x62B40041],dh
0041C5A2    41              inc ecx                                  ; IPMSG_-_.<ModuleEntryPoint>
0041C5A3    000F            add byte ptr ds:[edi],cl
0041C5A5    6D              ins dword ptr es:[edi],dx
0041C5A6    41              inc ecx                                  ; IPMSG_-_.<ModuleEntryPoint>
0041C5A7    0058 6C         add byte ptr ds:[eax+0x6C],bl
0041C5AA    41              inc ecx                                  ; IPMSG_-_.<ModuleEntryPoint>
0041C5AB    000F            add byte ptr ds:[edi],cl
0041C5AD    6D              ins dword ptr es:[edi],dx
0041C5AE    41              inc ecx                                  ; IPMSG_-_.<ModuleEntryPoint>
0041C5AF    00BD 14410058   add byte ptr ss:[ebp+0x58004114],bh
0041C5B5    6C              ins byte ptr es:[edi],dx
0041C5B6    41              inc ecx                                  ; IPMSG_-_.<ModuleEntryPoint>
0041C5B7    00BD 144100BD   add byte ptr ss:[ebp-0x42FFBEEC],bh
0041C5BD    14 41           adc al,0x41
0041C5BF    00BD 144100BD   add byte ptr ss:[ebp-0x42FFBEEC],bh
0041C5C5    14 41           adc al,0x41
0041C5C7    0058 6C         add byte ptr ds:[eax+0x6C],bl
0041C5CA    41              inc ecx                                  ; IPMSG_-_.<ModuleEntryPoint>
0041C5CB    000F            add byte ptr ds:[edi],cl
0041C5CD    6D              ins dword ptr es:[edi],dx
0041C5CE    41              inc ecx                                  ; IPMSG_-_.<ModuleEntryPoint>
0041C5CF    003E            add byte ptr ds:[esi],bh
0041C5D1    4C              dec esp
0041C5D2    41              inc ecx                                  ; IPMSG_-_.<ModuleEntryPoint>
0041C5D3    00BD 1441000F   add byte ptr ss:[ebp+0xF004114],bh
0041C5D9    6D              ins dword ptr es:[edi],dx
0041C5DA    41              inc ecx                                  ; IPMSG_-_.<ModuleEntryPoint>
0041C5DB    00146D 4100586C add byte ptr ds:[ebp*2+0x6C580041],dl
0041C5E2    41              inc ecx                                  ; IPMSG_-_.<ModuleEntryPoint>
0041C5E3    00146D 4100146D add byte ptr ds:[ebp*2+0x6D140041],dl
0041C5EA    41              inc ecx                                  ; IPMSG_-_.<ModuleEntryPoint>
0041C5EB    00BD 14410058   add byte ptr ss:[ebp+0x58004114],bh
0041C5F1    6C              ins byte ptr es:[edi],dx
0041C5F2    41              inc ecx                                  ; IPMSG_-_.<ModuleEntryPoint>
0041C5F3    0019            add byte ptr ds:[ecx],bl
0041C5F5    6D              ins dword ptr es:[edi],dx
0041C5F6    41              inc ecx                                  ; IPMSG_-_.<ModuleEntryPoint>
0041C5F7    0031            add byte ptr ds:[ecx],dh
0041C5F9    6D              ins dword ptr es:[edi],dx
0041C5FA    41              inc ecx                                  ; IPMSG_-_.<ModuleEntryPoint>
0041C5FB    0045 6D         add byte ptr ss:[ebp+0x6D],al
0041C5FE    41              inc ecx                                  ; IPMSG_-_.<ModuleEntryPoint>
0041C5FF    0055 6D         add byte ptr ss:[ebp+0x6D],dl
0041C602    41              inc ecx                                  ; IPMSG_-_.<ModuleEntryPoint>
0041C603    006D 6D         add byte ptr ss:[ebp+0x6D],ch
0041C606    41              inc ecx                                  ; IPMSG_-_.<ModuleEntryPoint>
0041C607    00D3            add bl,dl
0041C609    6D              ins dword ptr es:[edi],dx
0041C60A    41              inc ecx                                  ; IPMSG_-_.<ModuleEntryPoint>
0041C60B    00DD            add ch,bl
0041C60D    6D              ins dword ptr es:[edi],dx
0041C60E    41              inc ecx                                  ; IPMSG_-_.<ModuleEntryPoint>
0041C60F    0077 6D         add byte ptr ds:[edi+0x6D],dh
0041C612    41              inc ecx                                  ; IPMSG_-_.<ModuleEntryPoint>
0041C613    008F 6D4100A7   add byte ptr ds:[edi-0x58FFBE93],cl
0041C619    6D              ins dword ptr es:[edi],dx
0041C61A    41              inc ecx                                  ; IPMSG_-_.<ModuleEntryPoint>
0041C61B    00C3            add bl,al
0041C61D    6D              ins dword ptr es:[edi],dx
0041C61E    41              inc ecx                                  ; IPMSG_-_.<ModuleEntryPoint>
0041C61F    0069 6E         add byte ptr ds:[ecx+0x6E],ch
0041C622    41              inc ecx                                  ; IPMSG_-_.<ModuleEntryPoint>
0041C623    0073 6E         add byte ptr ds:[ebx+0x6E],dh
0041C626    41              inc ecx                                  ; IPMSG_-_.<ModuleEntryPoint>
0041C627    0083 6E410097   add byte ptr ds:[ebx-0x68FFBE92],al
0041C62D    6E              outs dx,byte ptr es:[edi]
0041C62E    41              inc ecx                                  ; IPMSG_-_.<ModuleEntryPoint>
0041C62F    00AB 6E4100BB   add byte ptr ds:[ebx-0x44FFBE92],ch
0041C635    6E              outs dx,byte ptr es:[edi]
0041C636    41              inc ecx                                  ; IPMSG_-_.<ModuleEntryPoint>
0041C637    00CA            add dl,cl
0041C639    42              inc edx                                  ; IPMSG_-_.<ModuleEntryPoint>
0041C63A    40              inc eax
0041C63B    00CB            add bl,cl
0041C63D    6E              outs dx,byte ptr es:[edi]
0041C63E    41              inc ecx                                  ; IPMSG_-_.<ModuleEntryPoint>
0041C63F    005D 6C         add byte ptr ss:[ebp+0x6C],bl
0041C642    41              inc ecx                                  ; IPMSG_-_.<ModuleEntryPoint>
0041C643    00EA            add dl,ch
0041C645    6E              outs dx,byte ptr es:[edi]
0041C646    41              inc ecx                                  ; IPMSG_-_.<ModuleEntryPoint>
0041C647    004B 62         add byte ptr ds:[ebx+0x62],cl
0041C64A    41              inc ecx                                  ; IPMSG_-_.<ModuleEntryPoint>
0041C64B    00D0            add al,dl
0041C64D    5E              pop esi                                  ; kernel32.765E6359
0041C64E    41              inc ecx                                  ; IPMSG_-_.<ModuleEntryPoint>
0041C64F    00246C          add byte ptr ss:[esp+ebp*2],ah
0041C652    41              inc ecx                                  ; IPMSG_-_.<ModuleEntryPoint>
0041C653    0028            add byte ptr ds:[eax],ch
0041C655    5E              pop esi                                  ; kernel32.765E6359
0041C656    41              inc ecx                                  ; IPMSG_-_.<ModuleEntryPoint>
0041C657    0081 5E4100BD   add byte ptr ds:[ecx-0x42FFBEA2],al
0041C65D    6241 00         bound eax,qword ptr ds:[ecx]
0041C660    004B 41         add byte ptr ds:[ebx+0x41],cl
0041C663    0010            add byte ptr ds:[eax],dl
0041C665    4F              dec edi                                  ; IPMSG_-_.<ModuleEntryPoint>
0041C666    41              inc ecx                                  ; IPMSG_-_.<ModuleEntryPoint>
0041C667    00B0 68410025   add byte ptr ds:[eax+0x25004168],dh
0041C66D    68 4100C55E     push 0x5EC50041
0041C672    41              inc ecx                                  ; IPMSG_-_.<ModuleEntryPoint>
0041C673    0098 534100BD   add byte ptr ds:[eax-0x42FFBEAD],bl
0041C679    14 41           adc al,0x41
0041C67B    0062 51         add byte ptr ds:[edx+0x51],ah
0041C67E    41              inc ecx                                  ; IPMSG_-_.<ModuleEntryPoint>
0041C67F    00B462 4100B462 add byte ptr ds:[edx+0x62B40041],dh
0041C686    41              inc ecx                                  ; IPMSG_-_.<ModuleEntryPoint>
0041C687    0005 6D410005   add byte ptr ds:[0x500416D],al
0041C68D    6D              ins dword ptr es:[edi],dx
0041C68E    41              inc ecx                                  ; IPMSG_-_.<ModuleEntryPoint>
0041C68F    00B462 4100B462 add byte ptr ds:[edx+0x62B40041],dh
0041C696    41              inc ecx                                  ; IPMSG_-_.<ModuleEntryPoint>
0041C697    000F            add byte ptr ds:[edi],cl
0041C699    6D              ins dword ptr es:[edi],dx
0041C69A    41              inc ecx                                  ; IPMSG_-_.<ModuleEntryPoint>
0041C69B    0058 6C         add byte ptr ds:[eax+0x6C],bl
0041C69E    41              inc ecx                                  ; IPMSG_-_.<ModuleEntryPoint>
0041C69F    000F            add byte ptr ds:[edi],cl
0041C6A1    6D              ins dword ptr es:[edi],dx
0041C6A2    41              inc ecx                                  ; IPMSG_-_.<ModuleEntryPoint>
0041C6A3    00BD 14410058   add byte ptr ss:[ebp+0x58004114],bh
0041C6A9    6C              ins byte ptr es:[edi],dx
0041C6AA    41              inc ecx                                  ; IPMSG_-_.<ModuleEntryPoint>
0041C6AB    00BD 144100BD   add byte ptr ss:[ebp-0x42FFBEEC],bh
0041C6B1    14 41           adc al,0x41
0041C6B3    00BD 144100BD   add byte ptr ss:[ebp-0x42FFBEEC],bh
0041C6B9    14 41           adc al,0x41
0041C6BB    0058 6C         add byte ptr ds:[eax+0x6C],bl
0041C6BE    41              inc ecx                                  ; IPMSG_-_.<ModuleEntryPoint>
0041C6BF    000F            add byte ptr ds:[edi],cl
0041C6C1    6D              ins dword ptr es:[edi],dx
0041C6C2    41              inc ecx                                  ; IPMSG_-_.<ModuleEntryPoint>
0041C6C3    00BD 144100BD   add byte ptr ss:[ebp-0x42FFBEEC],bh
0041C6C9    14 41           adc al,0x41
0041C6CB    000F            add byte ptr ds:[edi],cl
0041C6CD    6D              ins dword ptr es:[edi],dx
0041C6CE    41              inc ecx                                  ; IPMSG_-_.<ModuleEntryPoint>
0041C6CF    00146D 4100586C add byte ptr ds:[ebp*2+0x6C580041],dl
0041C6D6    41              inc ecx                                  ; IPMSG_-_.<ModuleEntryPoint>
0041C6D7    00146D 4100146D add byte ptr ds:[ebp*2+0x6D140041],dl
0041C6DE    41              inc ecx                                  ; IPMSG_-_.<ModuleEntryPoint>
0041C6DF    00BD 14410058   add byte ptr ss:[ebp+0x58004114],bh
0041C6E5    6C              ins byte ptr es:[edi],dx
0041C6E6    41              inc ecx                                  ; IPMSG_-_.<ModuleEntryPoint>
0041C6E7    0019            add byte ptr ds:[ecx],bl
0041C6E9    6D              ins dword ptr es:[edi],dx
0041C6EA    41              inc ecx                                  ; IPMSG_-_.<ModuleEntryPoint>
0041C6EB    0031            add byte ptr ds:[ecx],dh
0041C6ED    6D              ins dword ptr es:[edi],dx
0041C6EE    41              inc ecx                                  ; IPMSG_-_.<ModuleEntryPoint>
0041C6EF    0045 6D         add byte ptr ss:[ebp+0x6D],al
0041C6F2    41              inc ecx                                  ; IPMSG_-_.<ModuleEntryPoint>
0041C6F3    0055 6D         add byte ptr ss:[ebp+0x6D],dl
0041C6F6    41              inc ecx                                  ; IPMSG_-_.<ModuleEntryPoint>
0041C6F7    006D 6D         add byte ptr ss:[ebp+0x6D],ch
0041C6FA    41              inc ecx                                  ; IPMSG_-_.<ModuleEntryPoint>
0041C6FB    00D3            add bl,dl
0041C6FD    6D              ins dword ptr es:[edi],dx
0041C6FE    41              inc ecx                                  ; IPMSG_-_.<ModuleEntryPoint>
0041C6FF    00DD            add ch,bl
0041C701    6D              ins dword ptr es:[edi],dx
0041C702    41              inc ecx                                  ; IPMSG_-_.<ModuleEntryPoint>
0041C703    0077 6D         add byte ptr ds:[edi+0x6D],dh
0041C706    41              inc ecx                                  ; IPMSG_-_.<ModuleEntryPoint>
0041C707    008F 6D4100A7   add byte ptr ds:[edi-0x58FFBE93],cl
0041C70D    6D              ins dword ptr es:[edi],dx
0041C70E    41              inc ecx                                  ; IPMSG_-_.<ModuleEntryPoint>
0041C70F    00C3            add bl,al
0041C711    6D              ins dword ptr es:[edi],dx
0041C712    41              inc ecx                                  ; IPMSG_-_.<ModuleEntryPoint>
0041C713    0069 6E         add byte ptr ds:[ecx+0x6E],ch
0041C716    41              inc ecx                                  ; IPMSG_-_.<ModuleEntryPoint>
0041C717    0073 6E         add byte ptr ds:[ebx+0x6E],dh
0041C71A    41              inc ecx                                  ; IPMSG_-_.<ModuleEntryPoint>
0041C71B    0083 6E410097   add byte ptr ds:[ebx-0x68FFBE92],al
0041C721    6E              outs dx,byte ptr es:[edi]
0041C722    41              inc ecx                                  ; IPMSG_-_.<ModuleEntryPoint>
0041C723    00AB 6E4100BB   add byte ptr ds:[ebx-0x44FFBE92],ch
0041C729    6E              outs dx,byte ptr es:[edi]
0041C72A    41              inc ecx                                  ; IPMSG_-_.<ModuleEntryPoint>
0041C72B    00CA            add dl,cl
0041C72D    42              inc edx                                  ; IPMSG_-_.<ModuleEntryPoint>
0041C72E    40              inc eax
0041C72F    00CB            add bl,cl
0041C731    6E              outs dx,byte ptr es:[edi]
0041C732    41              inc ecx                                  ; IPMSG_-_.<ModuleEntryPoint>
0041C733    005D 6C         add byte ptr ss:[ebp+0x6C],bl
0041C736    41              inc ecx                                  ; IPMSG_-_.<ModuleEntryPoint>
0041C737    00EA            add dl,ch
0041C739    6E              outs dx,byte ptr es:[edi]
0041C73A    41              inc ecx                                  ; IPMSG_-_.<ModuleEntryPoint>
0041C73B    004B 62         add byte ptr ds:[ebx+0x62],cl
0041C73E    41              inc ecx                                  ; IPMSG_-_.<ModuleEntryPoint>
0041C73F    00D0            add al,dl
0041C741    5E              pop esi                                  ; kernel32.765E6359
0041C742    41              inc ecx                                  ; IPMSG_-_.<ModuleEntryPoint>
0041C743    00246C          add byte ptr ss:[esp+ebp*2],ah
0041C746    41              inc ecx                                  ; IPMSG_-_.<ModuleEntryPoint>
0041C747    0028            add byte ptr ds:[eax],ch
0041C749    5E              pop esi                                  ; kernel32.765E6359
0041C74A    41              inc ecx                                  ; IPMSG_-_.<ModuleEntryPoint>
0041C74B    002C4F          add byte ptr ds:[edi+ecx*2],ch
0041C74E    41              inc ecx                                  ; IPMSG_-_.<ModuleEntryPoint>
0041C74F    000D 4F4100A0   add byte ptr ds:[0xA000414F],cl
0041C755    5C              pop esp                                  ; kernel32.765E6359
0041C756    41              inc ecx                                  ; IPMSG_-_.<ModuleEntryPoint>
0041C757    0085 5A4100CE   add byte ptr ss:[ebp-0x31FFBEA6],al
0041C75D    8341 00 CD      add dword ptr ds:[ecx],-0x33
0041C761    5A              pop edx                                  ; kernel32.765E6359
0041C762    41              inc ecx                                  ; IPMSG_-_.<ModuleEntryPoint>
0041C763    0010            add byte ptr ds:[eax],dl
0041C765    4F              dec edi                                  ; IPMSG_-_.<ModuleEntryPoint>
0041C766    41              inc ecx                                  ; IPMSG_-_.<ModuleEntryPoint>
0041C767    00B0 68410025   add byte ptr ds:[eax+0x25004168],dh
0041C76D    68 4100C55E     push 0x5EC50041
0041C772    41              inc ecx                                  ; IPMSG_-_.<ModuleEntryPoint>
0041C773    0087 624100BD   add byte ptr ds:[edi-0x42FFBE9E],al
0041C779    14 41           adc al,0x41
0041C77B    00B7 624100B4   add byte ptr ds:[edi-0x4BFFBE9E],dh
0041C781    6241 00         bound eax,qword ptr ds:[ecx]
0041C784    B4 62           mov ah,0x62
0041C786    41              inc ecx                                  ; IPMSG_-_.<ModuleEntryPoint>
0041C787    0005 6D410005   add byte ptr ds:[0x500416D],al
0041C78D    6D              ins dword ptr es:[edi],dx
0041C78E    41              inc ecx                                  ; IPMSG_-_.<ModuleEntryPoint>
0041C78F    00B462 4100B462 add byte ptr ds:[edx+0x62B40041],dh
0041C796    41              inc ecx                                  ; IPMSG_-_.<ModuleEntryPoint>
0041C797    000F            add byte ptr ds:[edi],cl
0041C799    6D              ins dword ptr es:[edi],dx
0041C79A    41              inc ecx                                  ; IPMSG_-_.<ModuleEntryPoint>
0041C79B    0058 6C         add byte ptr ds:[eax+0x6C],bl
0041C79E    41              inc ecx                                  ; IPMSG_-_.<ModuleEntryPoint>
0041C79F    000F            add byte ptr ds:[edi],cl
0041C7A1    6D              ins dword ptr es:[edi],dx
0041C7A2    41              inc ecx                                  ; IPMSG_-_.<ModuleEntryPoint>
0041C7A3    00BD 14410058   add byte ptr ss:[ebp+0x58004114],bh
0041C7A9    6C              ins byte ptr es:[edi],dx
0041C7AA    41              inc ecx                                  ; IPMSG_-_.<ModuleEntryPoint>
0041C7AB    00BD 144100BD   add byte ptr ss:[ebp-0x42FFBEEC],bh
0041C7B1    14 41           adc al,0x41
0041C7B3    00BD 144100BD   add byte ptr ss:[ebp-0x42FFBEEC],bh
0041C7B9    14 41           adc al,0x41
0041C7BB    0058 6C         add byte ptr ds:[eax+0x6C],bl
0041C7BE    41              inc ecx                                  ; IPMSG_-_.<ModuleEntryPoint>
0041C7BF    000F            add byte ptr ds:[edi],cl
0041C7C1    6D              ins dword ptr es:[edi],dx
0041C7C2    41              inc ecx                                  ; IPMSG_-_.<ModuleEntryPoint>
0041C7C3    00BD 144100BD   add byte ptr ss:[ebp-0x42FFBEEC],bh
0041C7C9    14 41           adc al,0x41
0041C7CB    000F            add byte ptr ds:[edi],cl
0041C7CD    6D              ins dword ptr es:[edi],dx
0041C7CE    41              inc ecx                                  ; IPMSG_-_.<ModuleEntryPoint>
0041C7CF    00146D 4100586C add byte ptr ds:[ebp*2+0x6C580041],dl
0041C7D6    41              inc ecx                                  ; IPMSG_-_.<ModuleEntryPoint>
0041C7D7    00146D 4100146D add byte ptr ds:[ebp*2+0x6D140041],dl
0041C7DE    41              inc ecx                                  ; IPMSG_-_.<ModuleEntryPoint>
0041C7DF    00BD 14410058   add byte ptr ss:[ebp+0x58004114],bh
0041C7E5    6C              ins byte ptr es:[edi],dx
0041C7E6    41              inc ecx                                  ; IPMSG_-_.<ModuleEntryPoint>
0041C7E7    0019            add byte ptr ds:[ecx],bl
0041C7E9    6D              ins dword ptr es:[edi],dx
0041C7EA    41              inc ecx                                  ; IPMSG_-_.<ModuleEntryPoint>
0041C7EB    0031            add byte ptr ds:[ecx],dh
0041C7ED    6D              ins dword ptr es:[edi],dx
0041C7EE    41              inc ecx                                  ; IPMSG_-_.<ModuleEntryPoint>
0041C7EF    0045 6D         add byte ptr ss:[ebp+0x6D],al
0041C7F2    41              inc ecx                                  ; IPMSG_-_.<ModuleEntryPoint>
0041C7F3    0055 6D         add byte ptr ss:[ebp+0x6D],dl
0041C7F6    41              inc ecx                                  ; IPMSG_-_.<ModuleEntryPoint>
0041C7F7    006D 6D         add byte ptr ss:[ebp+0x6D],ch
0041C7FA    41              inc ecx                                  ; IPMSG_-_.<ModuleEntryPoint>
0041C7FB    00D3            add bl,dl
0041C7FD    6D              ins dword ptr es:[edi],dx
0041C7FE    41              inc ecx                                  ; IPMSG_-_.<ModuleEntryPoint>
0041C7FF    00DD            add ch,bl
0041C801    6D              ins dword ptr es:[edi],dx
0041C802    41              inc ecx                                  ; IPMSG_-_.<ModuleEntryPoint>
0041C803    0077 6D         add byte ptr ds:[edi+0x6D],dh
0041C806    41              inc ecx                                  ; IPMSG_-_.<ModuleEntryPoint>
0041C807    008F 6D4100A7   add byte ptr ds:[edi-0x58FFBE93],cl
0041C80D    6D              ins dword ptr es:[edi],dx
0041C80E    41              inc ecx                                  ; IPMSG_-_.<ModuleEntryPoint>
0041C80F    00C3            add bl,al
0041C811    6D              ins dword ptr es:[edi],dx
0041C812    41              inc ecx                                  ; IPMSG_-_.<ModuleEntryPoint>
0041C813    0069 6E         add byte ptr ds:[ecx+0x6E],ch
0041C816    41              inc ecx                                  ; IPMSG_-_.<ModuleEntryPoint>
0041C817    0073 6E         add byte ptr ds:[ebx+0x6E],dh
0041C81A    41              inc ecx                                  ; IPMSG_-_.<ModuleEntryPoint>
0041C81B    0083 6E410097   add byte ptr ds:[ebx-0x68FFBE92],al
0041C821    6E              outs dx,byte ptr es:[edi]
0041C822    41              inc ecx                                  ; IPMSG_-_.<ModuleEntryPoint>
0041C823    00AB 6E4100BB   add byte ptr ds:[ebx-0x44FFBE92],ch
0041C829    6E              outs dx,byte ptr es:[edi]
0041C82A    41              inc ecx                                  ; IPMSG_-_.<ModuleEntryPoint>
0041C82B    00CA            add dl,cl
0041C82D    42              inc edx                                  ; IPMSG_-_.<ModuleEntryPoint>
0041C82E    40              inc eax
0041C82F    00CB            add bl,cl
0041C831    6E              outs dx,byte ptr es:[edi]
0041C832    41              inc ecx                                  ; IPMSG_-_.<ModuleEntryPoint>
0041C833    005D 6C         add byte ptr ss:[ebp+0x6C],bl
0041C836    41              inc ecx                                  ; IPMSG_-_.<ModuleEntryPoint>
0041C837    00EA            add dl,ch
0041C839    6E              outs dx,byte ptr es:[edi]
0041C83A    41              inc ecx                                  ; IPMSG_-_.<ModuleEntryPoint>
0041C83B    004B 62         add byte ptr ds:[ebx+0x62],cl
0041C83E    41              inc ecx                                  ; IPMSG_-_.<ModuleEntryPoint>
0041C83F    00D0            add al,dl
0041C841    5E              pop esi                                  ; kernel32.765E6359
0041C842    41              inc ecx                                  ; IPMSG_-_.<ModuleEntryPoint>
0041C843    00246C          add byte ptr ss:[esp+ebp*2],ah
0041C846    41              inc ecx                                  ; IPMSG_-_.<ModuleEntryPoint>
0041C847    0028            add byte ptr ds:[eax],ch
0041C849    5E              pop esi                                  ; kernel32.765E6359
0041C84A    41              inc ecx                                  ; IPMSG_-_.<ModuleEntryPoint>
0041C84B    0081 5E4100BD   add byte ptr ds:[ecx-0x42FFBEA2],al
0041C851    6241 00         bound eax,qword ptr ds:[ecx]
0041C854    0063 41         add byte ptr ds:[ebx+0x41],ah
0041C857    003C63          add byte ptr ds:[ebx],bh
0041C85A    41              inc ecx                                  ; IPMSG_-_.<ModuleEntryPoint>
0041C85B    004D 63         add byte ptr ss:[ebp+0x63],cl
0041C85E    41              inc ecx                                  ; IPMSG_-_.<ModuleEntryPoint>
0041C85F    00AB 6F4100B0   add byte ptr ds:[ebx-0x4FFFBE91],ch
0041C865    68 41002568     push 0x68250041
0041C86A    41              inc ecx                                  ; IPMSG_-_.<ModuleEntryPoint>
0041C86B    0091 68410058   add byte ptr ds:[ecx+0x58004168],dl
0041C871    6C              ins byte ptr es:[edi],dx
0041C872    41              inc ecx                                  ; IPMSG_-_.<ModuleEntryPoint>
0041C873    00BD 1441000F   add byte ptr ss:[ebp+0xF004114],bh
0041C879    6D              ins dword ptr es:[edi],dx
0041C87A    41              inc ecx                                  ; IPMSG_-_.<ModuleEntryPoint>
0041C87B    00B462 4100B462 add byte ptr ds:[edx+0x62B40041],dh
0041C882    41              inc ecx                                  ; IPMSG_-_.<ModuleEntryPoint>
0041C883    0005 6D410005   add byte ptr ds:[0x500416D],al
0041C889    6D              ins dword ptr es:[edi],dx
0041C88A    41              inc ecx                                  ; IPMSG_-_.<ModuleEntryPoint>
0041C88B    000B            add byte ptr ds:[ebx],cl
0041C88D    6D              ins dword ptr es:[edi],dx
0041C88E    41              inc ecx                                  ; IPMSG_-_.<ModuleEntryPoint>
0041C88F    00B462 41000F6D add byte ptr ds:[edx+0x6D0F0041],dh
0041C896    41              inc ecx                                  ; IPMSG_-_.<ModuleEntryPoint>
0041C897    0058 6C         add byte ptr ds:[eax+0x6C],bl
0041C89A    41              inc ecx                                  ; IPMSG_-_.<ModuleEntryPoint>
0041C89B    000F            add byte ptr ds:[edi],cl
0041C89D    6D              ins dword ptr es:[edi],dx
0041C89E    41              inc ecx                                  ; IPMSG_-_.<ModuleEntryPoint>
0041C89F    00BD 14410058   add byte ptr ss:[ebp+0x58004114],bh
0041C8A5    6C              ins byte ptr es:[edi],dx
0041C8A6    41              inc ecx                                  ; IPMSG_-_.<ModuleEntryPoint>
0041C8A7    00BD 144100BD   add byte ptr ss:[ebp-0x42FFBEEC],bh
0041C8AD    14 41           adc al,0x41
0041C8AF    00BD 144100BD   add byte ptr ss:[ebp-0x42FFBEEC],bh
0041C8B5    14 41           adc al,0x41
0041C8B7    0058 6C         add byte ptr ds:[eax+0x6C],bl
0041C8BA    41              inc ecx                                  ; IPMSG_-_.<ModuleEntryPoint>
0041C8BB    000F            add byte ptr ds:[edi],cl
0041C8BD    6D              ins dword ptr es:[edi],dx
0041C8BE    41              inc ecx                                  ; IPMSG_-_.<ModuleEntryPoint>
0041C8BF    00BD 144100BD   add byte ptr ss:[ebp-0x42FFBEEC],bh
0041C8C5    14 41           adc al,0x41
0041C8C7    000F            add byte ptr ds:[edi],cl
0041C8C9    6D              ins dword ptr es:[edi],dx
0041C8CA    41              inc ecx                                  ; IPMSG_-_.<ModuleEntryPoint>
0041C8CB    00146D 4100586C add byte ptr ds:[ebp*2+0x6C580041],dl
0041C8D2    41              inc ecx                                  ; IPMSG_-_.<ModuleEntryPoint>
0041C8D3    00146D 4100146D add byte ptr ds:[ebp*2+0x6D140041],dl
0041C8DA    41              inc ecx                                  ; IPMSG_-_.<ModuleEntryPoint>
0041C8DB    00BD 14410058   add byte ptr ss:[ebp+0x58004114],bh
0041C8E1    6C              ins byte ptr es:[edi],dx
0041C8E2    41              inc ecx                                  ; IPMSG_-_.<ModuleEntryPoint>
0041C8E3    0019            add byte ptr ds:[ecx],bl
0041C8E5    6D              ins dword ptr es:[edi],dx
0041C8E6    41              inc ecx                                  ; IPMSG_-_.<ModuleEntryPoint>
0041C8E7    0031            add byte ptr ds:[ecx],dh
0041C8E9    6D              ins dword ptr es:[edi],dx
0041C8EA    41              inc ecx                                  ; IPMSG_-_.<ModuleEntryPoint>
0041C8EB    0045 6D         add byte ptr ss:[ebp+0x6D],al
0041C8EE    41              inc ecx                                  ; IPMSG_-_.<ModuleEntryPoint>
0041C8EF    0055 6D         add byte ptr ss:[ebp+0x6D],dl
0041C8F2    41              inc ecx                                  ; IPMSG_-_.<ModuleEntryPoint>
0041C8F3    006D 6D         add byte ptr ss:[ebp+0x6D],ch
0041C8F6    41              inc ecx                                  ; IPMSG_-_.<ModuleEntryPoint>
0041C8F7    00D3            add bl,dl
0041C8F9    6D              ins dword ptr es:[edi],dx
0041C8FA    41              inc ecx                                  ; IPMSG_-_.<ModuleEntryPoint>
0041C8FB    00DD            add ch,bl
0041C8FD    6D              ins dword ptr es:[edi],dx
0041C8FE    41              inc ecx                                  ; IPMSG_-_.<ModuleEntryPoint>
0041C8FF    0077 6D         add byte ptr ds:[edi+0x6D],dh
0041C902    41              inc ecx                                  ; IPMSG_-_.<ModuleEntryPoint>
0041C903    008F 6D4100A7   add byte ptr ds:[edi-0x58FFBE93],cl
0041C909    6D              ins dword ptr es:[edi],dx
0041C90A    41              inc ecx                                  ; IPMSG_-_.<ModuleEntryPoint>
0041C90B    00C3            add bl,al
0041C90D    6D              ins dword ptr es:[edi],dx
0041C90E    41              inc ecx                                  ; IPMSG_-_.<ModuleEntryPoint>
0041C90F    0069 6E         add byte ptr ds:[ecx+0x6E],ch
0041C912    41              inc ecx                                  ; IPMSG_-_.<ModuleEntryPoint>
0041C913    0073 6E         add byte ptr ds:[ebx+0x6E],dh
0041C916    41              inc ecx                                  ; IPMSG_-_.<ModuleEntryPoint>
0041C917    0083 6E410097   add byte ptr ds:[ebx-0x68FFBE92],al
0041C91D    6E              outs dx,byte ptr es:[edi]
0041C91E    41              inc ecx                                  ; IPMSG_-_.<ModuleEntryPoint>
0041C91F    00AB 6E4100BB   add byte ptr ds:[ebx-0x44FFBE92],ch
0041C925    6E              outs dx,byte ptr es:[edi]
0041C926    41              inc ecx                                  ; IPMSG_-_.<ModuleEntryPoint>
0041C927    00CA            add dl,cl
0041C929    42              inc edx                                  ; IPMSG_-_.<ModuleEntryPoint>
0041C92A    40              inc eax
0041C92B    00CB            add bl,cl
0041C92D    6E              outs dx,byte ptr es:[edi]
0041C92E    41              inc ecx                                  ; IPMSG_-_.<ModuleEntryPoint>
0041C92F    005D 6C         add byte ptr ss:[ebp+0x6C],bl
0041C932    41              inc ecx                                  ; IPMSG_-_.<ModuleEntryPoint>
0041C933    00EA            add dl,ch
0041C935    6E              outs dx,byte ptr es:[edi]
0041C936    41              inc ecx                                  ; IPMSG_-_.<ModuleEntryPoint>
0041C937    003C6C          add byte ptr ss:[esp+ebp*2],bh
0041C93A    41              inc ecx                                  ; IPMSG_-_.<ModuleEntryPoint>
0041C93B    00CD            add ch,cl
0041C93D    68 4100246C     push 0x6C240041
0041C942    41              inc ecx                                  ; IPMSG_-_.<ModuleEntryPoint>
0041C943    00AB 6F4100B0   add byte ptr ds:[ebx-0x4FFFBE91],ch
0041C949    68 41002568     push 0x68250041
0041C94E    41              inc ecx                                  ; IPMSG_-_.<ModuleEntryPoint>
0041C94F    0091 68410058   add byte ptr ds:[ecx+0x58004168],dl
0041C955    6C              ins byte ptr es:[edi],dx
0041C956    41              inc ecx                                  ; IPMSG_-_.<ModuleEntryPoint>
0041C957    00BD 1441000F   add byte ptr ss:[ebp+0xF004114],bh
0041C95D    6D              ins dword ptr es:[edi],dx
0041C95E    41              inc ecx                                  ; IPMSG_-_.<ModuleEntryPoint>
0041C95F    00B462 4100B462 add byte ptr ds:[edx+0x62B40041],dh
0041C966    41              inc ecx                                  ; IPMSG_-_.<ModuleEntryPoint>
0041C967    0005 6D410005   add byte ptr ds:[0x500416D],al
0041C96D    6D              ins dword ptr es:[edi],dx
0041C96E    41              inc ecx                                  ; IPMSG_-_.<ModuleEntryPoint>
0041C96F    000B            add byte ptr ds:[ebx],cl
0041C971    6D              ins dword ptr es:[edi],dx
0041C972    41              inc ecx                                  ; IPMSG_-_.<ModuleEntryPoint>
0041C973    00B462 41000F6D add byte ptr ds:[edx+0x6D0F0041],dh
0041C97A    41              inc ecx                                  ; IPMSG_-_.<ModuleEntryPoint>
0041C97B    0058 6C         add byte ptr ds:[eax+0x6C],bl
0041C97E    41              inc ecx                                  ; IPMSG_-_.<ModuleEntryPoint>
0041C97F    000F            add byte ptr ds:[edi],cl
0041C981    6D              ins dword ptr es:[edi],dx
0041C982    41              inc ecx                                  ; IPMSG_-_.<ModuleEntryPoint>
0041C983    00BD 14410058   add byte ptr ss:[ebp+0x58004114],bh
0041C989    6C              ins byte ptr es:[edi],dx
0041C98A    41              inc ecx                                  ; IPMSG_-_.<ModuleEntryPoint>
0041C98B    00BD 144100BD   add byte ptr ss:[ebp-0x42FFBEEC],bh
0041C991    14 41           adc al,0x41
0041C993    00BD 144100BD   add byte ptr ss:[ebp-0x42FFBEEC],bh
0041C999    14 41           adc al,0x41
0041C99B    0058 6C         add byte ptr ds:[eax+0x6C],bl
0041C99E    41              inc ecx                                  ; IPMSG_-_.<ModuleEntryPoint>
0041C99F    000F            add byte ptr ds:[edi],cl
0041C9A1    6D              ins dword ptr es:[edi],dx
0041C9A2    41              inc ecx                                  ; IPMSG_-_.<ModuleEntryPoint>
0041C9A3    00BD 144100BD   add byte ptr ss:[ebp-0x42FFBEEC],bh
0041C9A9    14 41           adc al,0x41
0041C9AB    000F            add byte ptr ds:[edi],cl
0041C9AD    6D              ins dword ptr es:[edi],dx
0041C9AE    41              inc ecx                                  ; IPMSG_-_.<ModuleEntryPoint>
0041C9AF    00146D 4100586C add byte ptr ds:[ebp*2+0x6C580041],dl
0041C9B6    41              inc ecx                                  ; IPMSG_-_.<ModuleEntryPoint>
0041C9B7    00146D 4100146D add byte ptr ds:[ebp*2+0x6D140041],dl
0041C9BE    41              inc ecx                                  ; IPMSG_-_.<ModuleEntryPoint>
0041C9BF    00BD 14410058   add byte ptr ss:[ebp+0x58004114],bh
0041C9C5    6C              ins byte ptr es:[edi],dx
0041C9C6    41              inc ecx                                  ; IPMSG_-_.<ModuleEntryPoint>
0041C9C7    0019            add byte ptr ds:[ecx],bl
0041C9C9    6D              ins dword ptr es:[edi],dx
0041C9CA    41              inc ecx                                  ; IPMSG_-_.<ModuleEntryPoint>
0041C9CB    0031            add byte ptr ds:[ecx],dh
0041C9CD    6D              ins dword ptr es:[edi],dx
0041C9CE    41              inc ecx                                  ; IPMSG_-_.<ModuleEntryPoint>
0041C9CF    0045 6D         add byte ptr ss:[ebp+0x6D],al
0041C9D2    41              inc ecx                                  ; IPMSG_-_.<ModuleEntryPoint>
0041C9D3    0055 6D         add byte ptr ss:[ebp+0x6D],dl
0041C9D6    41              inc ecx                                  ; IPMSG_-_.<ModuleEntryPoint>
0041C9D7    006D 6D         add byte ptr ss:[ebp+0x6D],ch
0041C9DA    41              inc ecx                                  ; IPMSG_-_.<ModuleEntryPoint>
0041C9DB    00D3            add bl,dl
0041C9DD    6D              ins dword ptr es:[edi],dx
0041C9DE    41              inc ecx                                  ; IPMSG_-_.<ModuleEntryPoint>
0041C9DF    00DD            add ch,bl
0041C9E1    6D              ins dword ptr es:[edi],dx
0041C9E2    41              inc ecx                                  ; IPMSG_-_.<ModuleEntryPoint>
0041C9E3    0077 6D         add byte ptr ds:[edi+0x6D],dh
0041C9E6    41              inc ecx                                  ; IPMSG_-_.<ModuleEntryPoint>
0041C9E7    008F 6D4100A7   add byte ptr ds:[edi-0x58FFBE93],cl
0041C9ED    6D              ins dword ptr es:[edi],dx
0041C9EE    41              inc ecx                                  ; IPMSG_-_.<ModuleEntryPoint>
0041C9EF    00C3            add bl,al
0041C9F1    6D              ins dword ptr es:[edi],dx
0041C9F2    41              inc ecx                                  ; IPMSG_-_.<ModuleEntryPoint>
0041C9F3    0069 6E         add byte ptr ds:[ecx+0x6E],ch
0041C9F6    41              inc ecx                                  ; IPMSG_-_.<ModuleEntryPoint>
0041C9F7    0073 6E         add byte ptr ds:[ebx+0x6E],dh
0041C9FA    41              inc ecx                                  ; IPMSG_-_.<ModuleEntryPoint>
0041C9FB    0083 6E410097   add byte ptr ds:[ebx-0x68FFBE92],al
0041CA01    6E              outs dx,byte ptr es:[edi]
0041CA02    41              inc ecx                                  ; IPMSG_-_.<ModuleEntryPoint>
0041CA03    00AB 6E4100BB   add byte ptr ds:[ebx-0x44FFBE92],ch
0041CA09    6E              outs dx,byte ptr es:[edi]
0041CA0A    41              inc ecx                                  ; IPMSG_-_.<ModuleEntryPoint>
0041CA0B    00CA            add dl,cl
0041CA0D    42              inc edx                                  ; IPMSG_-_.<ModuleEntryPoint>
0041CA0E    40              inc eax
0041CA0F    00CB            add bl,cl
0041CA11    6E              outs dx,byte ptr es:[edi]
0041CA12    41              inc ecx                                  ; IPMSG_-_.<ModuleEntryPoint>
0041CA13    005D 6C         add byte ptr ss:[ebp+0x6C],bl
0041CA16    41              inc ecx                                  ; IPMSG_-_.<ModuleEntryPoint>
0041CA17    00EA            add dl,ch
0041CA19    6E              outs dx,byte ptr es:[edi]
0041CA1A    41              inc ecx                                  ; IPMSG_-_.<ModuleEntryPoint>
0041CA1B    003C6C          add byte ptr ss:[esp+ebp*2],bh
0041CA1E    41              inc ecx                                  ; IPMSG_-_.<ModuleEntryPoint>
0041CA1F    00CD            add ch,cl
0041CA21    68 4100786F     push 0x6F780041
0041CA26    41              inc ecx                                  ; IPMSG_-_.<ModuleEntryPoint>
0041CA27    0048 6F         add byte ptr ds:[eax+0x6F],cl
0041CA2A    41              inc ecx                                  ; IPMSG_-_.<ModuleEntryPoint>
0041CA2B    00AB 6F4100B0   add byte ptr ds:[ebx-0x4FFFBE91],ch
0041CA31    68 41002568     push 0x68250041
0041CA36    41              inc ecx                                  ; IPMSG_-_.<ModuleEntryPoint>
0041CA37    0091 68410058   add byte ptr ds:[ecx+0x58004168],dl
0041CA3D    6C              ins byte ptr es:[edi],dx
0041CA3E    41              inc ecx                                  ; IPMSG_-_.<ModuleEntryPoint>
0041CA3F    00BD 1441000F   add byte ptr ss:[ebp+0xF004114],bh
0041CA45    6D              ins dword ptr es:[edi],dx
0041CA46    41              inc ecx                                  ; IPMSG_-_.<ModuleEntryPoint>
0041CA47    00B462 4100B462 add byte ptr ds:[edx+0x62B40041],dh
0041CA4E    41              inc ecx                                  ; IPMSG_-_.<ModuleEntryPoint>
0041CA4F    0005 6D410005   add byte ptr ds:[0x500416D],al
0041CA55    6D              ins dword ptr es:[edi],dx
0041CA56    41              inc ecx                                  ; IPMSG_-_.<ModuleEntryPoint>
0041CA57    000B            add byte ptr ds:[ebx],cl
0041CA59    6D              ins dword ptr es:[edi],dx
0041CA5A    41              inc ecx                                  ; IPMSG_-_.<ModuleEntryPoint>
0041CA5B    00B462 41000F6D add byte ptr ds:[edx+0x6D0F0041],dh
0041CA62    41              inc ecx                                  ; IPMSG_-_.<ModuleEntryPoint>
0041CA63    0058 6C         add byte ptr ds:[eax+0x6C],bl
0041CA66    41              inc ecx                                  ; IPMSG_-_.<ModuleEntryPoint>
0041CA67    000F            add byte ptr ds:[edi],cl
0041CA69    6D              ins dword ptr es:[edi],dx
0041CA6A    41              inc ecx                                  ; IPMSG_-_.<ModuleEntryPoint>
0041CA6B    00BD 14410058   add byte ptr ss:[ebp+0x58004114],bh
0041CA71    6C              ins byte ptr es:[edi],dx
0041CA72    41              inc ecx                                  ; IPMSG_-_.<ModuleEntryPoint>
0041CA73    00BD 144100BD   add byte ptr ss:[ebp-0x42FFBEEC],bh
0041CA79    14 41           adc al,0x41
0041CA7B    00BD 144100BD   add byte ptr ss:[ebp-0x42FFBEEC],bh
0041CA81    14 41           adc al,0x41
0041CA83    0058 6C         add byte ptr ds:[eax+0x6C],bl
0041CA86    41              inc ecx                                  ; IPMSG_-_.<ModuleEntryPoint>
0041CA87    000F            add byte ptr ds:[edi],cl
0041CA89    6D              ins dword ptr es:[edi],dx
0041CA8A    41              inc ecx                                  ; IPMSG_-_.<ModuleEntryPoint>
0041CA8B    00BD 144100BD   add byte ptr ss:[ebp-0x42FFBEEC],bh
0041CA91    14 41           adc al,0x41
0041CA93    000F            add byte ptr ds:[edi],cl
0041CA95    6D              ins dword ptr es:[edi],dx
0041CA96    41              inc ecx                                  ; IPMSG_-_.<ModuleEntryPoint>
0041CA97    00146D 4100586C add byte ptr ds:[ebp*2+0x6C580041],dl
0041CA9E    41              inc ecx                                  ; IPMSG_-_.<ModuleEntryPoint>
0041CA9F    00146D 4100146D add byte ptr ds:[ebp*2+0x6D140041],dl
0041CAA6    41              inc ecx                                  ; IPMSG_-_.<ModuleEntryPoint>
0041CAA7    00BD 14410058   add byte ptr ss:[ebp+0x58004114],bh
0041CAAD    6C              ins byte ptr es:[edi],dx
0041CAAE    41              inc ecx                                  ; IPMSG_-_.<ModuleEntryPoint>
0041CAAF    0019            add byte ptr ds:[ecx],bl
0041CAB1    6D              ins dword ptr es:[edi],dx
0041CAB2    41              inc ecx                                  ; IPMSG_-_.<ModuleEntryPoint>
0041CAB3    0031            add byte ptr ds:[ecx],dh
0041CAB5    6D              ins dword ptr es:[edi],dx
0041CAB6    41              inc ecx                                  ; IPMSG_-_.<ModuleEntryPoint>
0041CAB7    0045 6D         add byte ptr ss:[ebp+0x6D],al
0041CABA    41              inc ecx                                  ; IPMSG_-_.<ModuleEntryPoint>
0041CABB    0055 6D         add byte ptr ss:[ebp+0x6D],dl
0041CABE    41              inc ecx                                  ; IPMSG_-_.<ModuleEntryPoint>
0041CABF    006D 6D         add byte ptr ss:[ebp+0x6D],ch
0041CAC2    41              inc ecx                                  ; IPMSG_-_.<ModuleEntryPoint>
0041CAC3    00D3            add bl,dl
0041CAC5    6D              ins dword ptr es:[edi],dx
0041CAC6    41              inc ecx                                  ; IPMSG_-_.<ModuleEntryPoint>
0041CAC7    00DD            add ch,bl
0041CAC9    6D              ins dword ptr es:[edi],dx
0041CACA    41              inc ecx                                  ; IPMSG_-_.<ModuleEntryPoint>
0041CACB    0077 6D         add byte ptr ds:[edi+0x6D],dh
0041CACE    41              inc ecx                                  ; IPMSG_-_.<ModuleEntryPoint>
0041CACF    008F 6D4100A7   add byte ptr ds:[edi-0x58FFBE93],cl
0041CAD5    6D              ins dword ptr es:[edi],dx
0041CAD6    41              inc ecx                                  ; IPMSG_-_.<ModuleEntryPoint>
0041CAD7    00C3            add bl,al
0041CAD9    6D              ins dword ptr es:[edi],dx
0041CADA    41              inc ecx                                  ; IPMSG_-_.<ModuleEntryPoint>
0041CADB    0069 6E         add byte ptr ds:[ecx+0x6E],ch
0041CADE    41              inc ecx                                  ; IPMSG_-_.<ModuleEntryPoint>
0041CADF    0073 6E         add byte ptr ds:[ebx+0x6E],dh
0041CAE2    41              inc ecx                                  ; IPMSG_-_.<ModuleEntryPoint>
0041CAE3    0083 6E410097   add byte ptr ds:[ebx-0x68FFBE92],al
0041CAE9    6E              outs dx,byte ptr es:[edi]
0041CAEA    41              inc ecx                                  ; IPMSG_-_.<ModuleEntryPoint>
0041CAEB    00AB 6E4100BB   add byte ptr ds:[ebx-0x44FFBE92],ch
0041CAF1    6E              outs dx,byte ptr es:[edi]
0041CAF2    41              inc ecx                                  ; IPMSG_-_.<ModuleEntryPoint>
0041CAF3    00CA            add dl,cl
0041CAF5    42              inc edx                                  ; IPMSG_-_.<ModuleEntryPoint>
0041CAF6    40              inc eax
0041CAF7    00CB            add bl,cl
0041CAF9    6E              outs dx,byte ptr es:[edi]
0041CAFA    41              inc ecx                                  ; IPMSG_-_.<ModuleEntryPoint>
0041CAFB    005D 6C         add byte ptr ss:[ebp+0x6C],bl
0041CAFE    41              inc ecx                                  ; IPMSG_-_.<ModuleEntryPoint>
0041CAFF    00EA            add dl,ch
0041CB01    6E              outs dx,byte ptr es:[edi]
0041CB02    41              inc ecx                                  ; IPMSG_-_.<ModuleEntryPoint>
0041CB03    00C7            add bh,al
0041CB05    6F              outs dx,dword ptr es:[edi]
0041CB06    41              inc ecx                                  ; IPMSG_-_.<ModuleEntryPoint>
0041CB07    00CD            add ch,cl
0041CB09    68 4100786F     push 0x6F780041
0041CB0E    41              inc ecx                                  ; IPMSG_-_.<ModuleEntryPoint>
0041CB0F    0048 6F         add byte ptr ds:[eax+0x6F],cl
0041CB12    41              inc ecx                                  ; IPMSG_-_.<ModuleEntryPoint>
0041CB13    0000            add byte ptr ds:[eax],al
0041CB15    0000            add byte ptr ds:[eax],al
0041CB17    00FF            add bh,bh
0041CB19    FFFF            ???                                      ; 未知命令
0041CB1B    FFAE 844100C2   jmp far fword ptr ds:[esi-0x3DFFBE7C]
0041CB21    8441 00         test byte ptr ds:[ecx],al
0041CB24    0000            add byte ptr ds:[eax],al
0041CB26    0000            add byte ptr ds:[eax],al
0041CB28    0000            add byte ptr ds:[eax],al
0041CB2A    0000            add byte ptr ds:[eax],al
0041CB2C    0000            add byte ptr ds:[eax],al
0041CB2E    0000            add byte ptr ds:[eax],al
0041CB30    FFFF            ???                                      ; 未知命令
0041CB32    FFFF            ???                                      ; 未知命令
0041CB34    3393 41003793   xor edx,dword ptr ds:[ebx-0x6CC8FFBF]
0041CB3A    41              inc ecx                                  ; IPMSG_-_.<ModuleEntryPoint>
0041CB3B    00FF            add bh,bh
0041CB3D    FFFF            ???                                      ; 未知命令
0041CB3F    FFE7            jmp edi                                  ; IPMSG_-_.<ModuleEntryPoint>
0041CB41    93              xchg eax,ebx
0041CB42    41              inc ecx                                  ; IPMSG_-_.<ModuleEntryPoint>
0041CB43    00EB            add bl,ch
0041CB45    93              xchg eax,ebx
0041CB46    41              inc ecx                                  ; IPMSG_-_.<ModuleEntryPoint>
0041CB47    0072 75         add byte ptr ds:[edx+0x75],dh
0041CB4A    6E              outs dx,byte ptr es:[edi]
0041CB4B    74 69           je short IPMSG_-_.0041CBB6
0041CB4D    6D              ins dword ptr es:[edi],dx
0041CB4E    65:2065 72      and byte ptr gs:[ebp+0x72],ah
0041CB52    72 6F           jb short IPMSG_-_.0041CBC3
0041CB54    72 20           jb short IPMSG_-_.0041CB76
0041CB56    0000            add byte ptr ds:[eax],al
0041CB58    54              push esp
0041CB59    4C              dec esp
0041CB5A    4F              dec edi                                  ; IPMSG_-_.<ModuleEntryPoint>
0041CB5B    53              push ebx
0041CB5C    53              push ebx
0041CB5D    2065 72         and byte ptr ss:[ebp+0x72],ah
0041CB60    72 6F           jb short IPMSG_-_.0041CBD1
0041CB62    72 0D           jb short IPMSG_-_.0041CB71
0041CB64    0A00            or al,byte ptr ds:[eax]
0041CB66    0000            add byte ptr ds:[eax],al
0041CB68    53              push ebx
0041CB69    49              dec ecx                                  ; IPMSG_-_.<ModuleEntryPoint>
0041CB6A    4E              dec esi                                  ; IPMSG_-_.<ModuleEntryPoint>
0041CB6B    47              inc edi                                  ; IPMSG_-_.<ModuleEntryPoint>
0041CB6C    2065 72         and byte ptr ss:[ebp+0x72],ah
0041CB6F    72 6F           jb short IPMSG_-_.0041CBE0
0041CB71    72 0D           jb short IPMSG_-_.0041CB80
0041CB73    0A00            or al,byte ptr ds:[eax]
0041CB75    0000            add byte ptr ds:[eax],al
0041CB77    00444F 4D       add byte ptr ds:[edi+ecx*2+0x4D],al
0041CB7B    41              inc ecx                                  ; IPMSG_-_.<ModuleEntryPoint>
0041CB7C    49              dec ecx                                  ; IPMSG_-_.<ModuleEntryPoint>
0041CB7D    4E              dec esi                                  ; IPMSG_-_.<ModuleEntryPoint>
0041CB7E    2065 72         and byte ptr ss:[ebp+0x72],ah
0041CB81    72 6F           jb short IPMSG_-_.0041CBF2
0041CB83    72 0D           jb short IPMSG_-_.0041CB92
0041CB85    0A00            or al,byte ptr ds:[eax]
0041CB87    0052 36         add byte ptr ds:[edx+0x36],dl
0041CB8A    3032            xor byte ptr ds:[edx],dh
0041CB8C    380D 0A2D2075   cmp byte ptr ds:[0x75202D0A],cl
0041CB92    6E              outs dx,byte ptr es:[edi]
0041CB93    61              popad
0041CB94    626C65 20       bound ebp,qword ptr ss:[ebp+0x20]
0041CB98    74 6F           je short IPMSG_-_.0041CC09
0041CB9A    2069 6E         and byte ptr ds:[ecx+0x6E],ch
0041CB9D    697469 61 6C697>imul esi,dword ptr ds:[ecx+ebp*2+0x61],0>
0041CBA5    2068 65         and byte ptr ds:[eax+0x65],ch
0041CBA8    61              popad
0041CBA9    70 0D           jo short IPMSG_-_.0041CBB8
0041CBAB    0A00            or al,byte ptr ds:[eax]
0041CBAD    0000            add byte ptr ds:[eax],al
0041CBAF    0052 36         add byte ptr ds:[edx+0x36],dl
0041CBB2    3032            xor byte ptr ds:[edx],dh
0041CBB4    37              aaa
0041CBB5    0D 0A2D206E     or eax,0x6E202D0A
0041CBBA    6F              outs dx,dword ptr es:[edi]
0041CBBB    74 20           je short IPMSG_-_.0041CBDD
0041CBBD    65:6E           outs dx,byte ptr es:[edi]
0041CBBF    6F              outs dx,dword ptr es:[edi]
0041CBC0    75 67           jnz short IPMSG_-_.0041CC29
0041CBC2    68 20737061     push 0x61707320
0041CBC7    6365 20         arpl word ptr ss:[ebp+0x20],sp
0041CBCA    66:6F           outs dx,word ptr es:[edi]
0041CBCC    72 20           jb short IPMSG_-_.0041CBEE
0041CBCE    6C              ins byte ptr es:[edi],dx
0041CBCF    6F              outs dx,dword ptr es:[edi]
0041CBD0    77 69           ja short IPMSG_-_.0041CC3B
0041CBD2    6F              outs dx,dword ptr es:[edi]
0041CBD3    2069 6E         and byte ptr ds:[ecx+0x6E],ch
0041CBD6    697469 61 6C697>imul esi,dword ptr ds:[ecx+ebp*2+0x61],0>
0041CBDE    74 69           je short IPMSG_-_.0041CC49
0041CBE0    6F              outs dx,dword ptr es:[edi]
0041CBE1    6E              outs dx,byte ptr es:[edi]
0041CBE2    0D 0A000000     or eax,0xA
0041CBE7    0052 36         add byte ptr ds:[edx+0x36],dl
0041CBEA    3032            xor byte ptr ds:[edx],dh
0041CBEC    36:0D 0A2D206E  or eax,0x6E202D0A
0041CBF2    6F              outs dx,dword ptr es:[edi]
0041CBF3    74 20           je short IPMSG_-_.0041CC15
0041CBF5    65:6E           outs dx,byte ptr es:[edi]
0041CBF7    6F              outs dx,dword ptr es:[edi]
0041CBF8    75 67           jnz short IPMSG_-_.0041CC61
0041CBFA    68 20737061     push 0x61707320
0041CBFF    6365 20         arpl word ptr ss:[ebp+0x20],sp
0041CC02    66:6F           outs dx,word ptr es:[edi]
0041CC04    72 20           jb short IPMSG_-_.0041CC26
0041CC06    73 74           jnb short IPMSG_-_.0041CC7C
0041CC08    64:696F 20 696E>imul ebp,dword ptr fs:[edi+0x20],0x74696>
0041CC10    6961 6C 697A617>imul esp,dword ptr ds:[ecx+0x6C],0x74617>
0041CC17    696F 6E 0D0A000>imul ebp,dword ptr ds:[edi+0x6E],0xA0D
0041CC1E    0000            add byte ptr ds:[eax],al
0041CC20    52              push edx                                 ; IPMSG_-_.<ModuleEntryPoint>
0041CC21    36:3032         xor byte ptr ss:[edx],dh
0041CC24    35 0D0A2D20     xor eax,0x202D0A0D
0041CC29    70 75           jo short IPMSG_-_.0041CCA0
0041CC2B    72 65           jb short IPMSG_-_.0041CC92
0041CC2D    2076 69         and byte ptr ds:[esi+0x69],dh
0041CC30    72 74           jb short IPMSG_-_.0041CCA6
0041CC32    75 61           jnz short IPMSG_-_.0041CC95
0041CC34    6C              ins byte ptr es:[edi],dx
0041CC35    2066 75         and byte ptr ds:[esi+0x75],ah
0041CC38    6E              outs dx,byte ptr es:[edi]
0041CC39    637469 6F       arpl word ptr ds:[ecx+ebp*2+0x6F],si
0041CC3D    6E              outs dx,byte ptr es:[edi]
0041CC3E    2063 61         and byte ptr ds:[ebx+0x61],ah
0041CC41    6C              ins byte ptr es:[edi],dx
0041CC42    6C              ins byte ptr es:[edi],dx
0041CC43    0D 0A000000     or eax,0xA
0041CC48    52              push edx                                 ; IPMSG_-_.<ModuleEntryPoint>
0041CC49    36:3032         xor byte ptr ss:[edx],dh
0041CC4C    34 0D           xor al,0xD
0041CC4E    0A2D 206E6F74   or ch,byte ptr ds:[0x746F6E20]
0041CC54    2065 6E         and byte ptr ss:[ebp+0x6E],ah
0041CC57    6F              outs dx,dword ptr es:[edi]
0041CC58    75 67           jnz short IPMSG_-_.0041CCC1
0041CC5A    68 20737061     push 0x61707320
0041CC5F    6365 20         arpl word ptr ss:[ebp+0x20],sp
0041CC62    66:6F           outs dx,word ptr es:[edi]
0041CC64    72 20           jb short IPMSG_-_.0041CC86
0041CC66    5F              pop edi                                  ; kernel32.765E6359
0041CC67    6F              outs dx,dword ptr es:[edi]
0041CC68    6E              outs dx,byte ptr es:[edi]
0041CC69    65:78 69        js short IPMSG_-_.0041CCD5
0041CC6C    74 2F           je short IPMSG_-_.0041CC9D
0041CC6E    61              popad
0041CC6F    74 65           je short IPMSG_-_.0041CCD6
0041CC71    78 69           js short IPMSG_-_.0041CCDC
0041CC73    74 20           je short IPMSG_-_.0041CC95
0041CC75    74 61           je short IPMSG_-_.0041CCD8
0041CC77    626C65 0D       bound ebp,qword ptr ss:[ebp+0xD]
0041CC7B    0A00            or al,byte ptr ds:[eax]
0041CC7D    0000            add byte ptr ds:[eax],al
0041CC7F    0052 36         add byte ptr ds:[edx+0x36],dl
0041CC82    3031            xor byte ptr ds:[ecx],dh
0041CC84    390D 0A2D2075   cmp dword ptr ds:[0x75202D0A],ecx        ; IPMSG_-_.<ModuleEntryPoint>
0041CC8A    6E              outs dx,byte ptr es:[edi]
0041CC8B    61              popad
0041CC8C    626C65 20       bound ebp,qword ptr ss:[ebp+0x20]
0041CC90    74 6F           je short IPMSG_-_.0041CD01
0041CC92    206F 70         and byte ptr ds:[edi+0x70],ch
0041CC95    65:6E           outs dx,byte ptr es:[edi]
0041CC97    2063 6F         and byte ptr ds:[ebx+0x6F],ah
0041CC9A    6E              outs dx,byte ptr es:[edi]
0041CC9B    73 6F           jnb short IPMSG_-_.0041CD0C
0041CC9D    6C              ins byte ptr es:[edi],dx
0041CC9E    65:206465 76    and byte ptr gs:[ebp+0x76],ah
0041CCA3    6963 65 0D0A000>imul esp,dword ptr ds:[ebx+0x65],0xA0D
0041CCAA    0000            add byte ptr ds:[eax],al
0041CCAC    52              push edx                                 ; IPMSG_-_.<ModuleEntryPoint>
0041CCAD    36:3031         xor byte ptr ss:[ecx],dh
0041CCB0    380D 0A2D2075   cmp byte ptr ds:[0x75202D0A],cl
0041CCB6    6E              outs dx,byte ptr es:[edi]
0041CCB7    65:78 70        js short IPMSG_-_.0041CD2A
0041CCBA    65:637465 64    arpl word ptr gs:[ebp+0x64],si
0041CCBF    2068 65         and byte ptr ds:[eax+0x65],ch
0041CCC2    61              popad
0041CCC3    70 20           jo short IPMSG_-_.0041CCE5
0041CCC5    65:72 72        jb short IPMSG_-_.0041CD3A
0041CCC8    6F              outs dx,dword ptr es:[edi]
0041CCC9    72 0D           jb short IPMSG_-_.0041CCD8
0041CCCB    0A00            or al,byte ptr ds:[eax]
0041CCCD    0000            add byte ptr ds:[eax],al
0041CCCF    0052 36         add byte ptr ds:[edx+0x36],dl
0041CCD2    3031            xor byte ptr ds:[ecx],dh
0041CCD4    37              aaa
0041CCD5    0D 0A2D2075     or eax,0x75202D0A
0041CCDA    6E              outs dx,byte ptr es:[edi]
0041CCDB    65:78 70        js short IPMSG_-_.0041CD4E
0041CCDE    65:637465 64    arpl word ptr gs:[ebp+0x64],si
0041CCE3    206D 75         and byte ptr ss:[ebp+0x75],ch
0041CCE6    6C              ins byte ptr es:[edi],dx
0041CCE7    74 69           je short IPMSG_-_.0041CD52
0041CCE9    74 68           je short IPMSG_-_.0041CD53
0041CCEB    72 65           jb short IPMSG_-_.0041CD52
0041CCED    61              popad
0041CCEE    64:206C6F 63    and byte ptr fs:[edi+ebp*2+0x63],ch
0041CCF3    6B20 65         imul esp,dword ptr ds:[eax],0x65
0041CCF6    72 72           jb short IPMSG_-_.0041CD6A
0041CCF8    6F              outs dx,dword ptr es:[edi]
0041CCF9    72 0D           jb short IPMSG_-_.0041CD08
0041CCFB    0A00            or al,byte ptr ds:[eax]
0041CCFD    0000            add byte ptr ds:[eax],al
0041CCFF    0052 36         add byte ptr ds:[edx+0x36],dl
0041CD02    3031            xor byte ptr ds:[ecx],dh
0041CD04    36:0D 0A2D206E  or eax,0x6E202D0A
0041CD0A    6F              outs dx,dword ptr es:[edi]
0041CD0B    74 20           je short IPMSG_-_.0041CD2D
0041CD0D    65:6E           outs dx,byte ptr es:[edi]
0041CD0F    6F              outs dx,dword ptr es:[edi]
0041CD10    75 67           jnz short IPMSG_-_.0041CD79
0041CD12    68 20737061     push 0x61707320
0041CD17    6365 20         arpl word ptr ss:[ebp+0x20],sp
0041CD1A    66:6F           outs dx,word ptr es:[edi]
0041CD1C    72 20           jb short IPMSG_-_.0041CD3E
0041CD1E    74 68           je short IPMSG_-_.0041CD88
0041CD20    72 65           jb short IPMSG_-_.0041CD87
0041CD22    61              popad
0041CD23    64:206461 74    and byte ptr fs:[ecx+0x74],ah
0041CD28    61              popad
0041CD29    0D 0A000D0A     or eax,0xA0D000A
0041CD2E    61              popad
0041CD2F    626E 6F         bound ebp,qword ptr ds:[esi+0x6F]
0041CD32    72 6D           jb short IPMSG_-_.0041CDA1
0041CD34    61              popad
0041CD35    6C              ins byte ptr es:[edi],dx
0041CD36    2070 72         and byte ptr ds:[eax+0x72],dh
0041CD39    6F              outs dx,dword ptr es:[edi]
0041CD3A    67:72 61        jb short IPMSG_-_.0041CD9E
0041CD3D    6D              ins dword ptr es:[edi],dx
0041CD3E    207465 72       and byte ptr ss:[ebp+0x72],dh
0041CD42    6D              ins dword ptr es:[edi],dx
0041CD43    696E 61 74696F6>imul ebp,dword ptr ds:[esi+0x61],0x6E6F6>
0041CD4A    0D 0A000000     or eax,0xA
0041CD4F    0052 36         add byte ptr ds:[edx+0x36],dl
0041CD52    3030            xor byte ptr ds:[eax],dh
0041CD54    390D 0A2D206E   cmp dword ptr ds:[0x6E202D0A],ecx        ; IPMSG_-_.<ModuleEntryPoint>
0041CD5A    6F              outs dx,dword ptr es:[edi]
0041CD5B    74 20           je short IPMSG_-_.0041CD7D
0041CD5D    65:6E           outs dx,byte ptr es:[edi]
0041CD5F    6F              outs dx,dword ptr es:[edi]
0041CD60    75 67           jnz short IPMSG_-_.0041CDC9
0041CD62    68 20737061     push 0x61707320
0041CD67    6365 20         arpl word ptr ss:[ebp+0x20],sp
0041CD6A    66:6F           outs dx,word ptr es:[edi]
0041CD6C    72 20           jb short IPMSG_-_.0041CD8E
0041CD6E    65:6E           outs dx,byte ptr es:[edi]
0041CD70    76 69           jbe short IPMSG_-_.0041CDDB
0041CD72    72 6F           jb short IPMSG_-_.0041CDE3
0041CD74    6E              outs dx,byte ptr es:[edi]
0041CD75    6D              ins dword ptr es:[edi],dx
0041CD76    65:6E           outs dx,byte ptr es:[edi]
0041CD78    74 0D           je short IPMSG_-_.0041CD87
0041CD7A    0A00            or al,byte ptr ds:[eax]
0041CD7C    52              push edx                                 ; IPMSG_-_.<ModuleEntryPoint>
0041CD7D    36:3030         xor byte ptr ss:[eax],dh
0041CD80    380D 0A2D206E   cmp byte ptr ds:[0x6E202D0A],cl
0041CD86    6F              outs dx,dword ptr es:[edi]
0041CD87    74 20           je short IPMSG_-_.0041CDA9
0041CD89    65:6E           outs dx,byte ptr es:[edi]
0041CD8B    6F              outs dx,dword ptr es:[edi]
0041CD8C    75 67           jnz short IPMSG_-_.0041CDF5
0041CD8E    68 20737061     push 0x61707320
0041CD93    6365 20         arpl word ptr ss:[ebp+0x20],sp
0041CD96    66:6F           outs dx,word ptr es:[edi]
0041CD98    72 20           jb short IPMSG_-_.0041CDBA
0041CD9A    61              popad
0041CD9B    72 67           jb short IPMSG_-_.0041CE04
0041CD9D    75 6D           jnz short IPMSG_-_.0041CE0C
0041CD9F    65:6E           outs dx,byte ptr es:[edi]
0041CDA1    74 73           je short IPMSG_-_.0041CE16
0041CDA3    0D 0A000000     or eax,0xA
0041CDA8    52              push edx                                 ; IPMSG_-_.<ModuleEntryPoint>
0041CDA9    36:3030         xor byte ptr ss:[eax],dh
0041CDAC    320D 0A2D2066   xor cl,byte ptr ds:[0x66202D0A]
0041CDB2    6C              ins byte ptr es:[edi],dx
0041CDB3    6F              outs dx,dword ptr es:[edi]
0041CDB4    61              popad
0041CDB5    74 69           je short IPMSG_-_.0041CE20
0041CDB7    6E              outs dx,byte ptr es:[edi]
0041CDB8    67:2070 6F      and byte ptr ds:[bx+si+0x6F],dh
0041CDBC    696E 74 206E6F7>imul ebp,dword ptr ds:[esi+0x74],0x746F6>
0041CDC3    206C6F 61       and byte ptr ds:[edi+ebp*2+0x61],ch
0041CDC7    64:             prefix fs:
0041CDC8    65:             prefix gs:
0041CDC9    64:0D 0A000000  or eax,0xA
0041CDCF    004D 69         add byte ptr ss:[ebp+0x69],cl
0041CDD2    6372 6F         arpl word ptr ds:[edx+0x6F],si
0041CDD5    73 6F           jnb short IPMSG_-_.0041CE46
0041CDD7    66:74 20        je short 0000CDFA
0041CDDA    56              push esi                                 ; IPMSG_-_.<ModuleEntryPoint>
0041CDDB    6973 75 616C204>imul esi,dword ptr ds:[ebx+0x75],0x43206>
0041CDE2    2B2B            sub ebp,dword ptr ds:[ebx]
0041CDE4    2052 75         and byte ptr ds:[edx+0x75],dl
0041CDE7    6E              outs dx,byte ptr es:[edi]
0041CDE8    74 69           je short IPMSG_-_.0041CE53
0041CDEA    6D              ins dword ptr es:[edi],dx
0041CDEB    65:204C69 62    and byte ptr gs:[ecx+ebp*2+0x62],cl
0041CDF0    72 61           jb short IPMSG_-_.0041CE53
0041CDF2    72 79           jb short IPMSG_-_.0041CE6D
0041CDF4    0000            add byte ptr ds:[eax],al
0041CDF6    0000            add byte ptr ds:[eax],al
0041CDF8    0A0A            or cl,byte ptr ds:[edx]
0041CDFA    0000            add byte ptr ds:[eax],al
0041CDFC    52              push edx                                 ; IPMSG_-_.<ModuleEntryPoint>
0041CDFD    75 6E           jnz short IPMSG_-_.0041CE6D
0041CDFF    74 69           je short IPMSG_-_.0041CE6A
0041CE01    6D              ins dword ptr es:[edi],dx
0041CE02    65:2045 72      and byte ptr gs:[ebp+0x72],al
0041CE06    72 6F           jb short IPMSG_-_.0041CE77
0041CE08    72 21           jb short IPMSG_-_.0041CE2B
0041CE0A    0A0A            or cl,byte ptr ds:[edx]
0041CE0C    50              push eax
0041CE0D    72 6F           jb short IPMSG_-_.0041CE7E
0041CE0F    67:72 61        jb short IPMSG_-_.0041CE73
0041CE12    6D              ins dword ptr es:[edi],dx
0041CE13    3A20            cmp ah,byte ptr ds:[eax]
0041CE15    0000            add byte ptr ds:[eax],al
0041CE17    002E            add byte ptr ds:[esi],ch
0041CE19    2E:             prefix cs:
0041CE1A    2E:003C70       add byte ptr cs:[eax+esi*2],bh
0041CE1E    72 6F           jb short IPMSG_-_.0041CE8F
0041CE20    67:72 61        jb short IPMSG_-_.0041CE84
0041CE23    6D              ins dword ptr es:[edi],dx
0041CE24    206E 61         and byte ptr ds:[esi+0x61],ch
0041CE27    6D              ins dword ptr es:[edi],dx
0041CE28    65:2075 6E      and byte ptr gs:[ebp+0x6E],dh
0041CE2C    6B6E 6F 77      imul ebp,dword ptr ds:[esi+0x6F],0x77
0041CE30    6E              outs dx,byte ptr es:[edi]
0041CE31    3E:0000         add byte ptr ds:[eax],al
0041CE34    0000            add byte ptr ds:[eax],al
0041CE36    0000            add byte ptr ds:[eax],al
0041CE38    FFFF            ???                                      ; 未知命令
0041CE3A    FFFF            ???                                      ; 未知命令
0041CE3C    89A0 41008DA0   mov dword ptr ds:[eax-0x5F72FFBF],esp
0041CE42    41              inc ecx                                  ; IPMSG_-_.<ModuleEntryPoint>
0041CE43    0047 65         add byte ptr ds:[edi+0x65],al
0041CE46    74 4C           je short IPMSG_-_.0041CE94
0041CE48    61              popad
0041CE49    73 74           jnb short IPMSG_-_.0041CEBF
0041CE4B    41              inc ecx                                  ; IPMSG_-_.<ModuleEntryPoint>
0041CE4C    637469 76       arpl word ptr ds:[ecx+ebp*2+0x76],si
0041CE50    65:50           push eax
0041CE52    6F              outs dx,dword ptr es:[edi]
0041CE53    70 75           jo short IPMSG_-_.0041CECA
0041CE55    70 00           jo short IPMSG_-_.0041CE57
0041CE57    0047 65         add byte ptr ds:[edi+0x65],al
0041CE5A    74 41           je short IPMSG_-_.0041CE9D
0041CE5C    637469 76       arpl word ptr ds:[ecx+ebp*2+0x76],si
0041CE60    65:57           push edi                                 ; IPMSG_-_.<ModuleEntryPoint>
0041CE62    696E 64 6F77004>imul ebp,dword ptr ds:[esi+0x64],0x4D007>
0041CE69    65:73 73        jnb short IPMSG_-_.0041CEDF
0041CE6C    61              popad
0041CE6D    67:65:42        inc edx                                  ; IPMSG_-_.<ModuleEntryPoint>
0041CE70    6F              outs dx,dword ptr es:[edi]
0041CE71    78 41           js short IPMSG_-_.0041CEB4
0041CE73    0075 73         add byte ptr ss:[ebp+0x73],dh
0041CE76    65:72 33        jb short IPMSG_-_.0041CEAC
0041CE79    322E            xor ch,byte ptr ds:[esi]
0041CE7B    64:6C           ins byte ptr es:[edi],dx
0041CE7D    6C              ins byte ptr es:[edi],dx
0041CE7E    0000            add byte ptr ds:[eax],al
0041CE80    B0 CF           mov al,0xCF
0041CE82    0100            add dword ptr ds:[eax],eax
0041CE84    0000            add byte ptr ds:[eax],al
0041CE86    0000            add byte ptr ds:[eax],al
0041CE88    0000            add byte ptr ds:[eax],al
0041CE8A    0000            add byte ptr ds:[eax],al
0041CE8C    D8D5            fcom st(5)
0041CE8E    0100            add dword ptr ds:[eax],eax
0041CE90    54              push esp
0041CE91    B0 01           mov al,0x1
0041CE93    0004D1          add byte ptr ds:[ecx+edx*8],al
0041CE96    0100            add dword ptr ds:[eax],eax
0041CE98    0000            add byte ptr ds:[eax],al
0041CE9A    0000            add byte ptr ds:[eax],al
0041CE9C    0000            add byte ptr ds:[eax],al
0041CE9E    0000            add byte ptr ds:[eax],al
0041CEA0    D6              salc
0041CEA1    DB01            fild dword ptr ds:[ecx]
0041CEA3    00A8 B10100A0   add byte ptr ds:[eax-0x5FFFFE4F],ch
0041CEA9    CF              iretd
0041CEAA    0100            add dword ptr ds:[eax],eax
0041CEAC    0000            add byte ptr ds:[eax],al
0041CEAE    0000            add byte ptr ds:[eax],al
0041CEB0    0000            add byte ptr ds:[eax],al
0041CEB2    0000            add byte ptr ds:[eax],al
0041CEB4    16              push ss
0041CEB5    DC01            fadd qword ptr ds:[ecx]
0041CEB7    0044B0 01       add byte ptr ds:[eax+esi*4+0x1],al
0041CEBB    00D4            add ah,dl
0041CEBD    D201            rol byte ptr ds:[ecx],cl
0041CEBF    0000            add byte ptr ds:[eax],al
0041CEC1    0000            add byte ptr ds:[eax],al
0041CEC3    0000            add byte ptr ds:[eax],al
0041CEC5    0000            add byte ptr ds:[eax],al
0041CEC7    0056 DC         add byte ptr ds:[esi-0x24],dl
0041CECA    0100            add dword ptr ds:[eax],eax
0041CECC    78 B3           js short IPMSG_-_.0041CE81
0041CECE    0100            add dword ptr ds:[eax],eax
0041CED0    5C              pop esp                                  ; kernel32.765E6359
0041CED1    CF              iretd
0041CED2    0100            add dword ptr ds:[eax],eax
0041CED4    0000            add byte ptr ds:[eax],al
0041CED6    0000            add byte ptr ds:[eax],al
0041CED8    0000            add byte ptr ds:[eax],al
0041CEDA    0000            add byte ptr ds:[eax],al
0041CEDC    1E              push ds
0041CEDD    DD01            fld qword ptr ds:[ecx]
0041CEDF    0000            add byte ptr ds:[eax],al
0041CEE1    B0 01           mov al,0x1
0041CEE3    00DC            add ah,bl
0041CEE5    D001            rol byte ptr ds:[ecx],1
0041CEE7    0000            add byte ptr ds:[eax],al
0041CEE9    0000            add byte ptr ds:[eax],al
0041CEEB    0000            add byte ptr ds:[eax],al
0041CEED    0000            add byte ptr ds:[eax],al
0041CEEF    00CE            add dh,cl
0041CEF1    DD01            fld qword ptr ds:[ecx]
0041CEF3    0080 B10100E4   add byte ptr ds:[eax-0x1BFFFE4F],al
0041CEF9    D201            rol byte ptr ds:[ecx],cl
0041CEFB    0000            add byte ptr ds:[eax],al
0041CEFD    0000            add byte ptr ds:[eax],al
0041CEFF    0000            add byte ptr ds:[eax],al
0041CF01    0000            add byte ptr ds:[eax],al
0041CF03    00FC            add ah,bh
0041CF05    DD01            fld qword ptr ds:[ecx]
0041CF07    0088 B301006C   add byte ptr ds:[eax+0x6C0001B3],cl
0041CF0D    D201            rol byte ptr ds:[ecx],cl
0041CF0F    0000            add byte ptr ds:[eax],al
0041CF11    0000            add byte ptr ds:[eax],al
0041CF13    0000            add byte ptr ds:[eax],al
0041CF15    0000            add byte ptr ds:[eax],al
0041CF17    0014DE          add byte ptr ds:[esi+ebx*8],dl
0041CF1A    0100            add dword ptr ds:[eax],eax
0041CF1C    10B3 01008CCF   adc byte ptr ds:[ebx-0x3073FFFF],dh
0041CF22    0100            add dword ptr ds:[eax],eax
0041CF24    0000            add byte ptr ds:[eax],al
0041CF26    0000            add byte ptr ds:[eax],al
0041CF28    0000            add byte ptr ds:[eax],al
0041CF2A    0000            add byte ptr ds:[eax],al
0041CF2C    5E              pop esi                                  ; kernel32.765E6359
0041CF2D    DE01            fiadd word ptr ds:[ecx]
0041CF2F    0030            add byte ptr ds:[eax],dh
0041CF31    B0 01           mov al,0x1
0041CF33    0074D2 01       add byte ptr ds:[edx+edx*8+0x1],dh
0041CF37    0000            add byte ptr ds:[eax],al
0041CF39    0000            add byte ptr ds:[eax],al
0041CF3B    0000            add byte ptr ds:[eax],al
0041CF3D    0000            add byte ptr ds:[eax],al
0041CF3F    006CDE 01       add byte ptr ds:[esi+ebx*8+0x1],ch
0041CF43    0018            add byte ptr ds:[eax],bl
0041CF45    B3 01           mov bl,0x1
0041CF47    0000            add byte ptr ds:[eax],al
0041CF49    0000            add byte ptr ds:[eax],al
0041CF4B    0000            add byte ptr ds:[eax],al
0041CF4D    0000            add byte ptr ds:[eax],al
0041CF4F    0000            add byte ptr ds:[eax],al
0041CF51    0000            add byte ptr ds:[eax],al
0041CF53    0000            add byte ptr ds:[eax],al
0041CF55    0000            add byte ptr ds:[eax],al
0041CF57    0000            add byte ptr ds:[eax],al
0041CF59    0000            add byte ptr ds:[eax],al
0041CF5B    00DC            add ah,bl
0041CF5D    DC01            fadd qword ptr ds:[ecx]
0041CF5F    000E            add byte ptr ds:[esi],cl
0041CF61    DD01            fld qword ptr ds:[ecx]
0041CF63    00FE            add dh,bh
0041CF65    DC01            fadd qword ptr ds:[ecx]
0041CF67    0064DC 01       add byte ptr ss:[esp+ebx*8+0x1],ah
0041CF6B    0074DC 01       add byte ptr ss:[esp+ebx*8+0x1],dh
0041CF6F    0084DC 010096DC add byte ptr ss:[esp+ebx*8-0x2369FFFF],a>
0041CF76    0100            add dword ptr ds:[eax],eax
0041CF78    A4              movs byte ptr es:[edi],byte ptr ds:[esi]
0041CF79    DC01            fadd qword ptr ds:[ecx]
0041CF7B    00B6 DC0100CA   add byte ptr ds:[esi-0x35FFFE24],dh
0041CF81    DC01            fadd qword ptr ds:[ecx]
0041CF83    00EC            add ah,ch
0041CF85    DC01            fadd qword ptr ds:[ecx]
0041CF87    0000            add byte ptr ds:[eax],al
0041CF89    0000            add byte ptr ds:[eax],al
0041CF8B    0011            add byte ptr ds:[ecx],dl
0041CF8D    0000            add byte ptr ds:[eax],al
0041CF8F    804A DE 01      or byte ptr ds:[edx-0x22],0x1
0041CF93    001E            add byte ptr ds:[esi],bl
0041CF95    DE01            fiadd word ptr ds:[ecx]
0041CF97    0036            add byte ptr ds:[esi],dh
0041CF99    DE01            fiadd word ptr ds:[ecx]
0041CF9B    0000            add byte ptr ds:[eax],al
0041CF9D    0000            add byte ptr ds:[eax],al
0041CF9F    0008            add byte ptr ds:[eax],cl
0041CFA1    DC01            fadd qword ptr ds:[ecx]
0041CFA3    00E2            add dl,ah
0041CFA5    DB01            fild dword ptr ds:[ecx]
0041CFA7    00F2            add dl,dh
0041CFA9    DB01            fild dword ptr ds:[ecx]
0041CFAB    0000            add byte ptr ds:[eax],al
0041CFAD    0000            add byte ptr ds:[eax],al
0041CFAF    005E D4         add byte ptr ds:[esi-0x2C],bl
0041CFB2    0100            add dword ptr ds:[eax],eax
0041CFB4    6C              ins byte ptr es:[edi],dx
0041CFB5    D4 01           aam 0x1
0041CFB7    0078 D4         add byte ptr ds:[eax-0x2C],bh
0041CFBA    0100            add dword ptr ds:[eax],eax
0041CFBC    8AD4            mov dl,ah
0041CFBE    0100            add dword ptr ds:[eax],eax
0041CFC0    9A D40100A2 D40>call far 01D4:A20001D4
0041CFC7    00B4D4 0100C4D4 add byte ptr ss:[esp+edx*8-0x2B3BFFFF],d>
0041CFCE    0100            add dword ptr ds:[eax],eax
0041CFD0    D0D4            rcl ah,1
0041CFD2    0100            add dword ptr ds:[eax],eax
0041CFD4    E0 D4           loopdne short IPMSG_-_.0041CFAA
0041CFD6    0100            add dword ptr ds:[eax],eax
0041CFD8    F2:             prefix repne:
0041CFD9    D4 01           aam 0x1
0041CFDB    000A            add byte ptr ds:[edx],cl
0041CFDD    D5 01           aad 0x1
0041CFDF    001A            add byte ptr ds:[edx],bl
0041CFE1    D5 01           aad 0x1
0041CFE3    002E            add byte ptr ds:[esi],ch
0041CFE5    D5 01           aad 0x1
0041CFE7    003E            add byte ptr ds:[esi],bh
0041CFE9    D5 01           aad 0x1
0041CFEB    004E D5         add byte ptr ds:[esi-0x2B],cl
0041CFEE    0100            add dword ptr ds:[eax],eax
0041CFF0    5C              pop esp                                  ; kernel32.765E6359
0041CFF1    D5 01           aad 0x1
0041CFF3    0072 D5         add byte ptr ds:[edx-0x2B],dh
0041CFF6    0100            add dword ptr ds:[eax],eax
0041CFF8    86D5            xchg ch,dl
0041CFFA    0100            add dword ptr ds:[eax],eax
0041CFFC    9C              pushfd
0041CFFD    D5 01           aad 0x1
0041CFFF    00ACD5 0100CAD5 add byte ptr ss:[ebp+edx*8-0x2A35FFFF],c>
0041D006    0100            add dword ptr ds:[eax],eax
0041D008    88E0            mov al,ah
0041D00A    0100            add dword ptr ds:[eax],eax
0041D00C    7C E0           jl short IPMSG_-_.0041CFEE
0041D00E    0100            add dword ptr ds:[eax],eax
0041D010    6A E0           push -0x20
0041D012    0100            add dword ptr ds:[eax],eax
0041D014    4C              dec esp
0041D015    D4 01           aam 0x1
0041D017    004CE0 01       add byte ptr ds:[eax+0x1],cl
0041D01B    003E            add byte ptr ds:[esi],bh
0041D01D    E0 01           loopdne short IPMSG_-_.0041D020
0041D01F    002E            add byte ptr ds:[esi],ch
0041D021    E0 01           loopdne short IPMSG_-_.0041D024
0041D023    001CE0          add byte ptr ds:[eax],bl
0041D026    0100            add dword ptr ds:[eax],eax
0041D028    02E0            add ah,al
0041D02A    0100            add dword ptr ds:[eax],eax
0041D02C    EA DF0100D0 DF0>jmp far 01DF:D00001DF
0041D033    00B6 DF0100A0   add byte ptr ds:[esi-0x5FFFFE21],dh
0041D039    DF01            fild word ptr ds:[ecx]
0041D03B    0084DF 010074DF add byte ptr ds:[edi+ebx*8-0x208BFFFF],a>
0041D042    0100            add dword ptr ds:[eax],eax
0041D044    64:DF01         fild word ptr fs:[ecx]
0041D047    004E DF         add byte ptr ds:[esi-0x21],cl
0041D04A    0100            add dword ptr ds:[eax],eax
0041D04C    38DF            cmp bh,bl
0041D04E    0100            add dword ptr ds:[eax],eax
0041D050    24 DF           and al,0xDF
0041D052    0100            add dword ptr ds:[eax],eax
0041D054    10DF            adc bh,bl
0041D056    0100            add dword ptr ds:[eax],eax
0041D058    00DF            add bh,bl
0041D05A    0100            add dword ptr ds:[eax],eax
0041D05C    F2:             prefix repne:
0041D05D    DE01            fiadd word ptr ds:[ecx]
0041D05F    00E4            add ah,ah
0041D061    DE01            fiadd word ptr ds:[ecx]
0041D063    00D6            add dh,dl
0041D065    DE01            fiadd word ptr ds:[ecx]
0041D067    00C4            add ah,al
0041D069    DE01            fiadd word ptr ds:[ecx]
0041D06B    00B2 DE01009E   add byte ptr ds:[edx-0x61FFFE22],dh
0041D071    DE01            fiadd word ptr ds:[ecx]
0041D073    0090 DE010084   add byte ptr ds:[eax-0x7BFFFE22],dl
0041D079    DE01            fiadd word ptr ds:[ecx]
0041D07B    0078 DE         add byte ptr ds:[eax-0x22],bh
0041D07E    0100            add dword ptr ds:[eax],eax
0041D080    3E:D4 01        aam 0x1
0041D083    0028            add byte ptr ds:[eax],ch
0041D085    D4 01           aam 0x1
0041D087    0018            add byte ptr ds:[eax],bl
0041D089    D4 01           aam 0x1
0041D08B    0008            add byte ptr ds:[eax],cl
0041D08D    D4 01           aam 0x1
0041D08F    00F8            add al,bh
0041D091    D301            rol dword ptr ds:[ecx],cl
0041D093    00E8            add al,ch
0041D095    D301            rol dword ptr ds:[ecx],cl
0041D097    00D4            add ah,dl
0041D099    D301            rol dword ptr ds:[ecx],cl
0041D09B    00C6            add dh,al
0041D09D    D301            rol dword ptr ds:[ecx],cl
0041D09F    00B4D3 0100A8D3 add byte ptr ds:[ebx+edx*8-0x2C57FFFF],d>
0041D0A6    0100            add dword ptr ds:[eax],eax
0041D0A8    90              nop
0041D0A9    D301            rol dword ptr ds:[ecx],cl
0041D0AB    0078 D3         add byte ptr ds:[eax-0x2D],bh
0041D0AE    0100            add dword ptr ds:[eax],eax
0041D0B0    60              pushad
0041D0B1    D301            rol dword ptr ds:[ecx],cl
0041D0B3    0050 D3         add byte ptr ds:[eax-0x2D],dl
0041D0B6    0100            add dword ptr ds:[eax],eax
0041D0B8    40              inc eax
0041D0B9    D301            rol dword ptr ds:[ecx],cl
0041D0BB    002A            add byte ptr ds:[edx],ch
0041D0BD    D301            rol dword ptr ds:[ecx],cl
0041D0BF    001A            add byte ptr ds:[edx],bl
0041D0C1    D301            rol dword ptr ds:[ecx],cl
0041D0C3    000CD3          add byte ptr ds:[ebx+edx*8],cl
0041D0C6    0100            add dword ptr ds:[eax],eax
0041D0C8    FE              ???                                      ; 未知命令
0041D0C9    D201            rol byte ptr ds:[ecx],cl
0041D0CB    0058 E0         add byte ptr ds:[eax-0x20],bl
0041D0CE    0100            add dword ptr ds:[eax],eax
0041D0D0    F0:D201         lock rol byte ptr ds:[ecx],cl            ; 不允许锁定前缀
0041D0D3    0092 E0010000   add byte ptr ds:[edx+0x1E0],dl
0041D0D9    0000            add byte ptr ds:[eax],al
0041D0DB    00AE DD0100A0   add byte ptr ds:[esi-0x5FFFFE23],ch
0041D0E1    DD01            fld qword ptr ds:[ecx]
0041D0E3    008A DD010072   add byte ptr ds:[edx+0x720001DD],cl
0041D0E9    DD01            fld qword ptr ds:[ecx]
0041D0EB    0062 DD         add byte ptr ds:[edx-0x23],ah
0041D0EE    0100            add dword ptr ds:[eax],eax
0041D0F0    52              push edx                                 ; IPMSG_-_.<ModuleEntryPoint>
0041D0F1    DD01            fld qword ptr ds:[ecx]
0041D0F3    0040 DD         add byte ptr ds:[eax-0x23],al
0041D0F6    0100            add dword ptr ds:[eax],eax
0041D0F8    2C DD           sub al,0xDD
0041D0FA    0100            add dword ptr ds:[eax],eax
0041D0FC    BC DD010000     mov esp,0x1DD
0041D101    0000            add byte ptr ds:[eax],al
0041D103    00FE            add dh,bh
0041D105    D901            fld dword ptr ds:[ecx]
0041D107    000A            add byte ptr ds:[edx],cl
0041D109    DA01            fiadd dword ptr ds:[ecx]
0041D10B    001CDA          add byte ptr ds:[edx+ebx*8],bl
0041D10E    0100            add dword ptr ds:[eax],eax
0041D110    30DA            xor dl,bl
0041D112    0100            add dword ptr ds:[eax],eax
0041D114    44              inc esp
0041D115    DA01            fiadd dword ptr ds:[ecx]
0041D117    0052 DA         add byte ptr ds:[edx-0x26],dl
0041D11A    0100            add dword ptr ds:[eax],eax
0041D11C    64:DA01         fiadd dword ptr fs:[ecx]
0041D11F    007A DA         add byte ptr ds:[edx-0x26],bh
0041D122    0100            add dword ptr ds:[eax],eax
0041D124    48              dec eax
0041D125    D901            fld dword ptr ds:[ecx]
0041D127    00A0 DA0100B8   add byte ptr ds:[eax-0x47FFFE26],ah
0041D12D    DA01            fiadd dword ptr ds:[ecx]
0041D12F    00C8            add al,cl
0041D131    DA01            fiadd dword ptr ds:[ecx]
0041D133    00D4            add ah,dl
0041D135    DA01            fiadd dword ptr ds:[ecx]
0041D137    00E0            add al,ah
0041D139    DA01            fiadd dword ptr ds:[ecx]
0041D13B    00F0            add al,dh
0041D13D    DA01            fiadd dword ptr ds:[ecx]
0041D13F    0002            add byte ptr ds:[edx],al
0041D141    DB01            fild dword ptr ds:[ecx]
0041D143    0016            add byte ptr ds:[esi],dl
0041D145    DB01            fild dword ptr ds:[ecx]
0041D147    002E            add byte ptr ds:[esi],ch
0041D149    DB01            fild dword ptr ds:[ecx]
0041D14B    0042 DB         add byte ptr ds:[edx-0x25],al
0041D14E    0100            add dword ptr ds:[eax],eax
0041D150    5E              pop esi                                  ; kernel32.765E6359
0041D151    DB01            fild dword ptr ds:[ecx]
0041D153    0074DB 01       add byte ptr ds:[ebx+ebx*8+0x1],dh
0041D157    0086 DB010096   add byte ptr ds:[esi-0x69FFFE25],al
0041D15D    DB01            fild dword ptr ds:[ecx]
0041D15F    00F0            add al,dh
0041D161    D901            fld dword ptr ds:[ecx]
0041D163    00B4DB 0100C4DB add byte ptr ds:[ebx+ebx*8-0x243BFFFF],d>
0041D16A    0100            add dword ptr ds:[eax],eax
0041D16C    36:D901         fld dword ptr ss:[ecx]
0041D16F    0024D9          add byte ptr ds:[ecx+ebx*8],ah
0041D172    0100            add dword ptr ds:[eax],eax
0041D174    16              push ss
0041D175    D901            fld dword ptr ds:[ecx]
0041D177    0000            add byte ptr ds:[eax],al
0041D179    D901            fld dword ptr ds:[ecx]
0041D17B    00E6            add dh,ah
0041D17D    D5 01           aad 0x1
0041D17F    00F2            add dl,dh
0041D181    D5 01           aad 0x1
0041D183    0008            add byte ptr ds:[eax],cl
0041D185    D6              salc
0041D186    0100            add dword ptr ds:[eax],eax
0041D188    1AD6            sbb dl,dh
0041D18A    0100            add dword ptr ds:[eax],eax
0041D18C    EE              out dx,al
0041D18D    D801            fadd dword ptr ds:[ecx]
0041D18F    00DC            add ah,bl
0041D191    D801            fadd dword ptr ds:[ecx]
0041D193    00C8            add al,cl
0041D195    D801            fadd dword ptr ds:[ecx]
0041D197    00B6 D80100A0   add byte ptr ds:[esi-0x5FFFFE28],dh
0041D19D    D801            fadd dword ptr ds:[ecx]
0041D19F    0090 D801007E   add byte ptr ds:[eax+0x7E0001D8],dl
0041D1A5    D801            fadd dword ptr ds:[ecx]
0041D1A7    006CD8 01       add byte ptr ds:[eax+ebx*8+0x1],ch
0041D1AB    0058 D8         add byte ptr ds:[eax-0x28],bl
0041D1AE    0100            add dword ptr ds:[eax],eax
0041D1B0    4C              dec esp
0041D1B1    D801            fadd dword ptr ds:[ecx]
0041D1B3    003CD8          add byte ptr ds:[eax+ebx*8],bh
0041D1B6    0100            add dword ptr ds:[eax],eax
0041D1B8    2C D8           sub al,0xD8
0041D1BA    0100            add dword ptr ds:[eax],eax
0041D1BC    E0 D9           loopdne short IPMSG_-_.0041D197
0041D1BE    0100            add dword ptr ds:[eax],eax
0041D1C0    D0D9            rcr cl,1
0041D1C2    0100            add dword ptr ds:[eax],eax
0041D1C4    BE D90100A8     mov esi,0xA80001D9
0041D1C9    D901            fld dword ptr ds:[ecx]
0041D1CB    009CD9 01008ED9 add byte ptr ds:[ecx+ebx*8-0x2671FFFF],b>
0041D1D2    0100            add dword ptr ds:[eax],eax
0041D1D4    7E D9           jle short IPMSG_-_.0041D1AF
0041D1D6    0100            add dword ptr ds:[eax],eax
0041D1D8    6C              ins byte ptr es:[edi],dx
0041D1D9    D901            fld dword ptr ds:[ecx]
0041D1DB    00A6 DB01005A   add byte ptr ds:[esi+0x5A0001DB],ah
0041D1E1    D901            fld dword ptr ds:[ecx]
0041D1E3    0028            add byte ptr ds:[eax],ch
0041D1E5    D6              salc
0041D1E6    0100            add dword ptr ds:[eax],eax
0041D1E8    36:D6           salc
0041D1EA    0100            add dword ptr ds:[eax],eax
0041D1EC    42              inc edx                                  ; IPMSG_-_.<ModuleEntryPoint>
0041D1ED    D6              salc
0041D1EE    0100            add dword ptr ds:[eax],eax
0041D1F0    50              push eax
0041D1F1    D6              salc
0041D1F2    0100            add dword ptr ds:[eax],eax
0041D1F4    60              pushad
0041D1F5    D6              salc
0041D1F6    0100            add dword ptr ds:[eax],eax
0041D1F8    1E              push ds
0041D1F9    D801            fadd dword ptr ds:[ecx]
0041D1FB    0008            add byte ptr ds:[eax],cl
0041D1FD    D801            fadd dword ptr ds:[ecx]
0041D1FF    00F2            add dl,dh
0041D201    D7              xlat byte ptr ds:[ebx+al]
0041D202    0100            add dword ptr ds:[eax],eax
0041D204    E6 D7           out 0xD7,al
0041D206    0100            add dword ptr ds:[eax],eax
0041D208    D6              salc
0041D209    D7              xlat byte ptr ds:[ebx+al]
0041D20A    0100            add dword ptr ds:[eax],eax
0041D20C    74 D6           je short IPMSG_-_.0041D1E4
0041D20E    0100            add dword ptr ds:[eax],eax
0041D210    88D6            mov dh,dl
0041D212    0100            add dword ptr ds:[eax],eax
0041D214    A2 D60100B4     mov byte ptr ds:[0xB40001D6],al
0041D219    D6              salc
0041D21A    0100            add dword ptr ds:[eax],eax
0041D21C    C0D6 01         rcl dh,0x1
0041D21F    00CC            add ah,cl
0041D221    D6              salc
0041D222    0100            add dword ptr ds:[eax],eax
0041D224    E0 D6           loopdne short IPMSG_-_.0041D1FC
0041D226    0100            add dword ptr ds:[eax],eax
0041D228    EE              out dx,al
0041D229    D6              salc
0041D22A    0100            add dword ptr ds:[eax],eax
0041D22C    FC              cld
0041D22D    D6              salc
0041D22E    0100            add dword ptr ds:[eax],eax
0041D230    0E              push cs
0041D231    D7              xlat byte ptr ds:[ebx+al]
0041D232    0100            add dword ptr ds:[eax],eax
0041D234    22D7            and dl,bh
0041D236    0100            add dword ptr ds:[eax],eax
0041D238    30D7            xor bh,dl
0041D23A    0100            add dword ptr ds:[eax],eax
0041D23C    3C D7           cmp al,0xD7
0041D23E    0100            add dword ptr ds:[eax],eax
0041D240    4A              dec edx                                  ; IPMSG_-_.<ModuleEntryPoint>
0041D241    D7              xlat byte ptr ds:[ebx+al]
0041D242    0100            add dword ptr ds:[eax],eax
0041D244    5A              pop edx                                  ; kernel32.765E6359
0041D245    D7              xlat byte ptr ds:[ebx+al]
0041D246    0100            add dword ptr ds:[eax],eax
0041D248    6A D7           push -0x29
0041D24A    0100            add dword ptr ds:[eax],eax
0041D24C    78 D7           js short IPMSG_-_.0041D225
0041D24E    0100            add dword ptr ds:[eax],eax
0041D250    86D7            xchg bh,dl
0041D252    0100            add dword ptr ds:[eax],eax
0041D254    94              xchg eax,esp
0041D255    D7              xlat byte ptr ds:[ebx+al]
0041D256    0100            add dword ptr ds:[eax],eax
0041D258    A6              cmps byte ptr ds:[esi],byte ptr es:[edi]
0041D259    D7              xlat byte ptr ds:[ebx+al]
0041D25A    0100            add dword ptr ds:[eax],eax
0041D25C    B6 D7           mov dh,0xD7
0041D25E    0100            add dword ptr ds:[eax],eax
0041D260    C8 D70100       enter 0x1D7,0x0
0041D264    8CDA            mov dx,ds
0041D266    0100            add dword ptr ds:[eax],eax
0041D268    0000            add byte ptr ds:[eax],al
0041D26A    0000            add byte ptr ds:[eax],al
0041D26C    06              push es
0041D26D    DE01            fiadd word ptr ds:[ecx]
0041D26F    0000            add byte ptr ds:[eax],al
0041D271    0000            add byte ptr ds:[eax],al
0041D273    0001            add byte ptr ds:[ecx],al
0041D275    0000            add byte ptr ds:[eax],al
0041D277    8011 00         adc byte ptr ds:[ecx],0x0
0041D27A    0080 14000080   add byte ptr ds:[eax-0x7FFFFFEC],al
0041D280    65:0000         add byte ptr gs:[eax],al
0041D283    807400 00 80    xor byte ptr ds:[eax+eax],0x80
0041D288    73 00           jnb short IPMSG_-_.0041D28A
0041D28A    0080 17000080   add byte ptr ds:[eax-0x7FFFFFE9],al
0041D290    0200            add al,byte ptr ds:[eax]
0041D292    0080 0C000080   add byte ptr ds:[eax-0x7FFFFFF4],al
0041D298    15 00008004     adc eax,0x4800000
0041D29D    0000            add byte ptr ds:[eax],al
0041D29F    8039 00         cmp byte ptr ds:[ecx],0x0
0041D2A2    0080 34000080   add byte ptr ds:[eax-0x7FFFFFCC],al
0041D2A8    6F              outs dx,dword ptr es:[edi]
0041D2A9    0000            add byte ptr ds:[eax],al
0041D2AB    800A 00         or byte ptr ds:[edx],0x0
0041D2AE    0080 13000080   add byte ptr ds:[eax-0x7FFFFFED],al
0041D2B4    1200            adc al,byte ptr ds:[eax]
0041D2B6    0080 10000080   add byte ptr ds:[eax-0x7FFFFFF0],al
0041D2BC    0300            add eax,dword ptr ds:[eax]
0041D2BE    0080 09000080   add byte ptr ds:[eax-0x7FFFFFF7],al
0041D2C4    0B00            or eax,dword ptr ds:[eax]
0041D2C6    0080 0D000080   add byte ptr ds:[eax-0x7FFFFFF3],al
0041D2CC    0E              push cs
0041D2CD    0000            add byte ptr ds:[eax],al
0041D2CF    8000 00         add byte ptr ds:[eax],0x0
0041D2D2    0000            add byte ptr ds:[eax],al
0041D2D4    34 DC           xor al,0xDC
0041D2D6    0100            add dword ptr ds:[eax],eax
0041D2D8    48              dec eax
0041D2D9    DC01            fadd qword ptr ds:[ecx]
0041D2DB    0020            add byte ptr ds:[eax],ah
0041D2DD    DC01            fadd qword ptr ds:[ecx]
0041D2DF    0000            add byte ptr ds:[eax],al
0041D2E1    0000            add byte ptr ds:[eax],al
0041D2E3    00DA            add dl,bl
0041D2E5    DD01            fld qword ptr ds:[ecx]
0041D2E7    00EA            add dl,ch
0041D2E9    DD01            fld qword ptr ds:[ecx]
0041D2EB    0000            add byte ptr ds:[eax],al
0041D2ED    0000            add byte ptr ds:[eax],al
0041D2EF    007401 47       add byte ptr ds:[ecx+eax+0x47],dh
0041D2F3    65:74 56        je short IPMSG_-_.0041D34C
0041D2F6    65:72 73        jb short IPMSG_-_.0041D36C
0041D2F9    696F 6E 00007D0>imul ebp,dword ptr ds:[edi+0x6E],0x7D000>
0041D300    45              inc ebp
0041D301    78 69           js short IPMSG_-_.0041D36C
0041D303    74 50           je short IPMSG_-_.0041D355
0041D305    72 6F           jb short IPMSG_-_.0041D376
0041D307    6365 73         arpl word ptr ss:[ebp+0x73],sp
0041D30A    73 00           jnb short IPMSG_-_.0041D30C
0041D30C    1B00            sbb eax,dword ptr ds:[eax]
0041D30E    43              inc ebx
0041D30F    6C              ins byte ptr es:[edi],dx
0041D310    6F              outs dx,dword ptr es:[edi]
0041D311    73 65           jnb short IPMSG_-_.0041D378
0041D313    48              dec eax
0041D314    61              popad
0041D315    6E              outs dx,byte ptr es:[edi]
0041D316    64:6C           ins byte ptr es:[edi],dx
0041D318    65:0025 0252656>add byte ptr gs:[0x6C655202],ah
0041D31F    65:61           popad
0041D321    73 65           jnb short IPMSG_-_.0041D388
0041D323    4D              dec ebp
0041D324    75 74           jnz short IPMSG_-_.0041D39A
0041D326    65:78 00        js short IPMSG_-_.0041D329
0041D329    00CE            add dh,cl
0041D32B    0257 61         add dl,byte ptr ds:[edi+0x61]
0041D32E    697446 6F 72536>imul esi,dword ptr ds:[esi+eax*2+0x6F],0>
0041D336    67:6C           ins byte ptr es:[di],dx
0041D338    65:4F           dec edi                                  ; IPMSG_-_.<ModuleEntryPoint>
0041D33A    626A 65         bound ebp,qword ptr ds:[edx+0x65]
0041D33D    637400 3F       arpl word ptr ds:[eax+eax+0x3F],si
0041D341    0043 72         add byte ptr ds:[ebx+0x72],al
0041D344    65:61           popad
0041D346    74 65           je short IPMSG_-_.0041D3AD
0041D348    4D              dec ebp
0041D349    75 74           jnz short IPMSG_-_.0041D3BF
0041D34B    65:78 41        js short IPMSG_-_.0041D38F
0041D34E    0000            add byte ptr ds:[eax],al
0041D350    04 01           add al,0x1
0041D352    47              inc edi                                  ; IPMSG_-_.<ModuleEntryPoint>
0041D353    65:74 44        je short IPMSG_-_.0041D39A
0041D356    72 69           jb short IPMSG_-_.0041D3C1
0041D358    76 65           jbe short IPMSG_-_.0041D3BF
0041D35A    54              push esp
0041D35B    79 70           jns short IPMSG_-_.0041D3CD
0041D35D    65:41           inc ecx                                  ; IPMSG_-_.<ModuleEntryPoint>
0041D35F    005D 02         add byte ptr ss:[ebp+0x2],bl
0041D362    53              push ebx
0041D363    65:74 43        je short IPMSG_-_.0041D3A9
0041D366    75 72           jnz short IPMSG_-_.0041D3DA
0041D368    72 65           jb short IPMSG_-_.0041D3CF
0041D36A    6E              outs dx,byte ptr es:[edi]
0041D36B    74 44           je short IPMSG_-_.0041D3B1
0041D36D    6972 65 63746F7>imul esi,dword ptr ds:[edx+0x65],0x726F7>
0041D374    79 41           jns short IPMSG_-_.0041D3B7
0041D376    0000            add byte ptr ds:[eax],al
0041D378    7D 01           jge short IPMSG_-_.0041D37B
0041D37A    47              inc edi                                  ; IPMSG_-_.<ModuleEntryPoint>
0041D37B    65:74 57        je short IPMSG_-_.0041D3D5
0041D37E    696E 64 6F77734>imul ebp,dword ptr ds:[esi+0x64],0x44737>
0041D385    6972 65 63746F7>imul esi,dword ptr ds:[edx+0x65],0x726F7>
0041D38C    79 41           jns short IPMSG_-_.0041D3CF
0041D38E    0000            add byte ptr ds:[eax],al
0041D390    F5              cmc
0041D391    0047 65         add byte ptr ds:[edi+0x65],al
0041D394    74 43           je short IPMSG_-_.0041D3D9
0041D396    75 72           jnz short IPMSG_-_.0041D40A
0041D398    72 65           jb short IPMSG_-_.0041D3FF
0041D39A    6E              outs dx,byte ptr es:[edi]
0041D39B    74 44           je short IPMSG_-_.0041D3E1
0041D39D    6972 65 63746F7>imul esi,dword ptr ds:[edx+0x65],0x726F7>
0041D3A4    79 41           jns short IPMSG_-_.0041D3E7
0041D3A6    0000            add byte ptr ds:[eax],al
0041D3A8    DF02            fild word ptr ds:[edx]
0041D3AA    57              push edi                                 ; IPMSG_-_.<ModuleEntryPoint>
0041D3AB    72 69           jb short IPMSG_-_.0041D416
0041D3AD    74 65           je short IPMSG_-_.0041D414
0041D3AF    46              inc esi                                  ; IPMSG_-_.<ModuleEntryPoint>
0041D3B0    696C65 00 6A025>imul ebp,dword ptr ss:[ebp],0x6553026A
0041D3B8    74 46           je short IPMSG_-_.0041D400
0041D3BA    696C65 50 6F696>imul ebp,dword ptr ss:[ebp+0x50],0x746E6>; ntdll.76FB9F90
0041D3C2    65:72 00        jb short IPMSG_-_.0041D3C5
0041D3C5    003400          add byte ptr ds:[eax+eax],dh
0041D3C8    43              inc ebx
0041D3C9    72 65           jb short IPMSG_-_.0041D430
0041D3CB    61              popad
0041D3CC    74 65           je short IPMSG_-_.0041D433
0041D3CE    46              inc esi                                  ; IPMSG_-_.<ModuleEntryPoint>
0041D3CF    696C65 41 00160>imul ebp,dword ptr ss:[ebp+0x41],0x47011>
0041D3D7    65:74 46        je short IPMSG_-_.0041D420
0041D3DA    75 6C           jnz short IPMSG_-_.0041D448
0041D3DC    6C              ins byte ptr es:[edi],dx
0041D3DD    50              push eax
0041D3DE    61              popad
0041D3DF    74 68           je short IPMSG_-_.0041D449
0041D3E1    4E              dec esi                                  ; IPMSG_-_.<ModuleEntryPoint>
0041D3E2    61              popad
0041D3E3    6D              ins dword ptr es:[edi],dx
0041D3E4    65:41           inc ecx                                  ; IPMSG_-_.<ModuleEntryPoint>
0041D3E6    0000            add byte ptr ds:[eax],al
0041D3E8    4A              dec edx                                  ; IPMSG_-_.<ModuleEntryPoint>
0041D3E9    0043 72         add byte ptr ds:[ebx+0x72],al
0041D3EC    65:61           popad
0041D3EE    74 65           je short IPMSG_-_.0041D455
0041D3F0    54              push esp
0041D3F1    68 72656164     push 0x64616572
0041D3F6    0000            add byte ptr ds:[eax],al
0041D3F8    6D              ins dword ptr es:[edi],dx
0041D3F9    0147 65         add dword ptr ds:[edi+0x65],eax
0041D3FC    74 54           je short IPMSG_-_.0041D452
0041D3FE    6963 6B 436F756>imul esp,dword ptr ds:[ebx+0x6B],0x6E756>
0041D405    74 00           je short IPMSG_-_.0041D407
0041D407    00B5 01497342   add byte ptr ss:[ebp+0x42734901],dh
0041D40D    61              popad
0041D40E    64:52           push edx                                 ; IPMSG_-_.<ModuleEntryPoint>
0041D410    65:61           popad
0041D412    64:50           push eax
0041D414    74 72           je short IPMSG_-_.0041D488
0041D416    0000            add byte ptr ds:[eax],al
0041D418    D6              salc
0041D419    014D 61         add dword ptr ss:[ebp+0x61],ecx          ; IPMSG_-_.<ModuleEntryPoint>
0041D41C    70 56           jo short IPMSG_-_.0041D474
0041D41E    6965 77 4F66466>imul esp,dword ptr ss:[ebp+0x77],0x69466>
0041D425    6C              ins byte ptr es:[edi],dx
0041D426    65:0035 0043726>add byte ptr gs:[0x65724300],dh
0041D42D    61              popad
0041D42E    74 65           je short IPMSG_-_.0041D495
0041D430    46              inc esi                                  ; IPMSG_-_.<ModuleEntryPoint>
0041D431    696C65 4D 61707>imul ebp,dword ptr ss:[ebp+0x4D],0x69707>
0041D439    6E              outs dx,byte ptr es:[edi]
0041D43A    67:41           inc ecx                                  ; IPMSG_-_.<ModuleEntryPoint>
0041D43C    0000            add byte ptr ds:[eax],al
0041D43E    1201            adc al,byte ptr ds:[ecx]
0041D440    47              inc edi                                  ; IPMSG_-_.<ModuleEntryPoint>
0041D441    65:74 46        je short IPMSG_-_.0041D48A
0041D444    696C65 53 697A6>imul ebp,dword ptr ss:[ebp+0x53],0x657A6>
0041D44C    B0 02           mov al,0x2
0041D44E    55              push ebp
0041D44F    6E              outs dx,byte ptr es:[edi]
0041D450    6D              ins dword ptr es:[edi],dx
0041D451    61              popad
0041D452    70 56           jo short IPMSG_-_.0041D4AA
0041D454    6965 77 4F66466>imul esp,dword ptr ss:[ebp+0x77],0x69466>
0041D45B    6C              ins byte ptr es:[edi],dx
0041D45C    65:007E 00      add byte ptr gs:[esi],bh
0041D460    45              inc ebp
0041D461    78 69           js short IPMSG_-_.0041D4CC
0041D463    74 54           je short IPMSG_-_.0041D4B9
0041D465    68 72656164     push 0x64616572
0041D46A    0000            add byte ptr ds:[eax],al
0041D46C    90              nop
0041D46D    0046 69         add byte ptr ds:[esi+0x69],al
0041D470    6E              outs dx,byte ptr es:[edi]
0041D471    64:43           inc ebx
0041D473    6C              ins byte ptr es:[edi],dx
0041D474    6F              outs dx,dword ptr es:[edi]
0041D475    73 65           jnb short IPMSG_-_.0041D4DC
0041D477    009400 46696E64 add byte ptr ds:[eax+eax+0x646E6946],dl
0041D47E    46              inc esi                                  ; IPMSG_-_.<ModuleEntryPoint>
0041D47F    6972 73 7446696>imul esi,dword ptr ds:[edx+0x73],0x6C694>
0041D486    65:41           inc ecx                                  ; IPMSG_-_.<ModuleEntryPoint>
0041D488    0000            add byte ptr ds:[eax],al
0041D48A    9D              popfd
0041D48B    0046 69         add byte ptr ds:[esi+0x69],al
0041D48E    6E              outs dx,byte ptr es:[edi]
0041D48F    64:4E           dec esi                                  ; IPMSG_-_.<ModuleEntryPoint>
0041D491    65:78 74        js short IPMSG_-_.0041D508
0041D494    46              inc esi                                  ; IPMSG_-_.<ModuleEntryPoint>
0041D495    696C65 41 00960>imul ebp,dword ptr ss:[ebp+0x41],0x53029>
0041D49D    6C              ins byte ptr es:[edi],dx
0041D49E    65:             prefix gs:
0041D49F    65:70 00        jo short IPMSG_-_.0041D4A2
0041D4A2    3E:0147 65      add dword ptr ds:[edi+0x65],eax
0041D4A6    74 50           je short IPMSG_-_.0041D4F8
0041D4A8    72 6F           jb short IPMSG_-_.0041D519
0041D4AA    6341 64         arpl word ptr ds:[ecx+0x64],ax
0041D4AD    64:72 65        jb short IPMSG_-_.0041D515
0041D4B0    73 73           jnb short IPMSG_-_.0041D525
0041D4B2    0000            add byte ptr ds:[eax],al
0041D4B4    C2 014C         retn 0x4C01
0041D4B7    6F              outs dx,dword ptr es:[edi]
0041D4B8    61              popad
0041D4B9    64:4C           dec esp
0041D4BB    6962 72 6172794>imul esp,dword ptr ds:[edx+0x72],0x41797>
0041D4C2    0000            add byte ptr ds:[eax],al
0041D4C4    CC              int3
0041D4C5    014C6F 63       add dword ptr ds:[edi+ebp*2+0x63],ecx    ; IPMSG_-_.<ModuleEntryPoint>
0041D4C9    61              popad
0041D4CA    6C              ins byte ptr es:[edi],dx
0041D4CB    46              inc esi                                  ; IPMSG_-_.<ModuleEntryPoint>
0041D4CC    72 65           jb short IPMSG_-_.0041D533
0041D4CE    65:001A         add byte ptr gs:[edx],bl
0041D4D1    0147 65         add dword ptr ds:[edi+0x65],eax
0041D4D4    74 4C           je short IPMSG_-_.0041D522
0041D4D6    61              popad
0041D4D7    73 74           jnb short IPMSG_-_.0041D54D
0041D4D9    45              inc ebp
0041D4DA    72 72           jb short IPMSG_-_.0041D54E
0041D4DC    6F              outs dx,dword ptr es:[edi]
0041D4DD    72 00           jb short IPMSG_-_.0041D4DF
0041D4DF    00B9 01497344   add byte ptr ds:[ecx+0x44734901],bh
0041D4E5    42              inc edx                                  ; IPMSG_-_.<ModuleEntryPoint>
0041D4E6    43              inc ebx
0041D4E7    53              push ebx
0041D4E8    4C              dec esp
0041D4E9    65:61           popad
0041D4EB    64:42           inc edx                                  ; IPMSG_-_.<ModuleEntryPoint>
0041D4ED    79 74           jns short IPMSG_-_.0041D563
0041D4EF    65:0000         add byte ptr gs:[eax],al
0041D4F2    9B              wait
0041D4F3    0253 79         add dl,byte ptr ds:[ebx+0x79]
0041D4F6    73 74           jnb short IPMSG_-_.0041D56C
0041D4F8    65:6D           ins dword ptr es:[edi],dx
0041D4FA    54              push esp
0041D4FB    696D 65 546F466>imul ebp,dword ptr ss:[ebp+0x65],0x69466>
0041D502    6C              ins byte ptr es:[edi],dx
0041D503    65:54           push esp
0041D505    696D 65 00001B0>imul ebp,dword ptr ss:[ebp+0x65],0x11B00>
0041D50C    47              inc edi                                  ; IPMSG_-_.<ModuleEntryPoint>
0041D50D    65:74 4C        je short IPMSG_-_.0041D55C
0041D510    6F              outs dx,dword ptr es:[edi]
0041D511    6361 6C         arpl word ptr ds:[ecx+0x6C],sp
0041D514    54              push esp
0041D515    696D 65 0000CE0>imul ebp,dword ptr ss:[ebp+0x65],0xCE000>
0041D51C    47              inc edi                                  ; IPMSG_-_.<ModuleEntryPoint>
0041D51D    65:74 43        je short IPMSG_-_.0041D563
0041D520    6F              outs dx,dword ptr es:[edi]
0041D521    6D              ins dword ptr es:[edi],dx
0041D522    70 75           jo short IPMSG_-_.0041D599
0041D524    74 65           je short IPMSG_-_.0041D58B
0041D526    72 4E           jb short IPMSG_-_.0041D576
0041D528    61              popad
0041D529    6D              ins dword ptr es:[edi],dx
0041D52A    65:41           inc ecx                                  ; IPMSG_-_.<ModuleEntryPoint>
0041D52C    0000            add byte ptr ds:[eax],al
0041D52E    2C 02           sub al,0x2
0041D530    52              push edx                                 ; IPMSG_-_.<ModuleEntryPoint>
0041D531    65:73 75        jnb short IPMSG_-_.0041D5A9
0041D534    6D              ins dword ptr es:[edi],dx
0041D535    65:54           push esp
0041D537    68 72656164     push 0x64616572
0041D53C    0000            add byte ptr ds:[eax],al
0041D53E    98              cwde
0041D53F    0253 75         add dl,byte ptr ds:[ebx+0x75]
0041D542    73 70           jnb short IPMSG_-_.0041D5B4
0041D544    65:6E           outs dx,byte ptr es:[edi]
0041D546    64:54           push esp
0041D548    68 72656164     push 0x64616572
0041D54D    006C02 53       add byte ptr ds:[edx+eax+0x53],ch
0041D551    65:74 46        je short IPMSG_-_.0041D59A
0041D554    696C65 54 696D6>imul ebp,dword ptr ss:[ebp+0x54],0x656D6>
0041D55C    68 02536574     push 0x74655302
0041D561    46              inc esi                                  ; IPMSG_-_.<ModuleEntryPoint>
0041D562    696C65 41 74747>imul ebp,dword ptr ss:[ebp+0x41],0x69727>
0041D56A    6275 74         bound esi,qword ptr ss:[ebp+0x74]        ; IPMSG_-_.<ModuleEntryPoint>
0041D56D    65:73 41        jnb short IPMSG_-_.0041D5B1
0041D570    0000            add byte ptr ds:[eax],al
0041D572    2D 00437265     sub eax,0x65724300
0041D577    61              popad
0041D578    74 65           je short IPMSG_-_.0041D5DF
0041D57A    44              inc esp
0041D57B    6972 65 63746F7>imul esi,dword ptr ds:[edx+0x65],0x726F7>
0041D582    79 41           jns short IPMSG_-_.0041D5C5
0041D584    0000            add byte ptr ds:[eax],al
0041D586    0D 01476574     or eax,0x74654701
0041D58B    46              inc esi                                  ; IPMSG_-_.<ModuleEntryPoint>
0041D58C    696C65 41 74747>imul ebp,dword ptr ss:[ebp+0x41],0x69727>
0041D594    6275 74         bound esi,qword ptr ss:[ebp+0x74]        ; IPMSG_-_.<ModuleEntryPoint>
0041D597    65:73 41        jnb short IPMSG_-_.0041D5DB
0041D59A    0000            add byte ptr ds:[eax],al
0041D59C    5D              pop ebp                                  ; kernel32.765E6359
0041D59D    0147 65         add dword ptr ds:[edi+0x65],eax
0041D5A0    74 53           je short IPMSG_-_.0041D5F5
0041D5A2    79 73           jns short IPMSG_-_.0041D617
0041D5A4    74 65           je short IPMSG_-_.0041D60B
0041D5A6    6D              ins dword ptr es:[edi],dx
0041D5A7    54              push esp
0041D5A8    696D 65 0011014>imul ebp,dword ptr ss:[ebp+0x65],0x47011>
0041D5AF    65:74 46        je short IPMSG_-_.0041D5F8
0041D5B2    696C65 49 6E666>imul ebp,dword ptr ss:[ebp+0x49],0x726F6>
0041D5BA    6D              ins dword ptr es:[edi],dx
0041D5BB    61              popad
0041D5BC    74 69           je short IPMSG_-_.0041D627
0041D5BE    6F              outs dx,dword ptr es:[edi]
0041D5BF    6E              outs dx,byte ptr es:[edi]
0041D5C0    42              inc edx                                  ; IPMSG_-_.<ModuleEntryPoint>
0041D5C1    79 48           jns short IPMSG_-_.0041D60B
0041D5C3    61              popad
0041D5C4    6E              outs dx,byte ptr es:[edi]
0041D5C5    64:6C           ins byte ptr es:[edi],dx
0041D5C7    65:0000         add byte ptr gs:[eax],al
0041D5CA    B4 00           mov ah,0x0
0041D5CC    46              inc esi                                  ; IPMSG_-_.<ModuleEntryPoint>
0041D5CD    72 65           jb short IPMSG_-_.0041D634
0041D5CF    65:4C           dec esp
0041D5D1    6962 72 6172790>imul esp,dword ptr ds:[edx+0x72],0x79726>
0041D5D8    4B              dec ebx
0041D5D9    45              inc ebp
0041D5DA    52              push edx                                 ; IPMSG_-_.<ModuleEntryPoint>
0041D5DB    4E              dec esi                                  ; IPMSG_-_.<ModuleEntryPoint>
0041D5DC    45              inc ebp
0041D5DD    4C              dec esp
0041D5DE    3332            xor esi,dword ptr ds:[edx]
0041D5E0    2E:             prefix cs:
0041D5E1    64:6C           ins byte ptr es:[edi],dx
0041D5E3    6C              ins byte ptr es:[edi],dx
0041D5E4    0000            add byte ptr ds:[eax],al
0041D5E6    AC              lods byte ptr ds:[esi]
0041D5E7    0277 73         add dh,byte ptr ds:[edi+0x73]
0041D5EA    70 72           jo short IPMSG_-_.0041D65E
0041D5EC    696E 74 6641003>imul ebp,dword ptr ds:[esi+0x74],0x30004>
0041D5F3    0253 65         add dl,byte ptr ds:[ebx+0x65]
0041D5F6    74 46           je short IPMSG_-_.0041D63E
0041D5F8    6F              outs dx,dword ptr es:[edi]
0041D5F9    72 65           jb short IPMSG_-_.0041D660
0041D5FB    67:72 6F        jb short IPMSG_-_.0041D66D
0041D5FE    75 6E           jnz short IPMSG_-_.0041D66E
0041D600    64:57           push edi                                 ; IPMSG_-_.<ModuleEntryPoint>
0041D602    696E 64 6F7700F>imul ebp,dword ptr ds:[esi+0x64],0xF2007>
0041D609    0152 65         add dword ptr ds:[edx+0x65],edx          ; IPMSG_-_.<ModuleEntryPoint>
0041D60C    67:6973 74 6572>imul esi,dword ptr ss:[bp+di+0x74],0x6C4>
0041D614    61              popad
0041D615    73 73           jnb short IPMSG_-_.0041D68A
0041D617    41              inc ecx                                  ; IPMSG_-_.<ModuleEntryPoint>
0041D618    0000            add byte ptr ds:[eax],al
0041D61A    D5 00           aad 0x0
0041D61C    46              inc esi                                  ; IPMSG_-_.<ModuleEntryPoint>
0041D61D    696E 64 57696E6>imul ebp,dword ptr ds:[esi+0x64],0x646E6>
0041D624    6F              outs dx,dword ptr es:[edi]
0041D625    77 41           ja short IPMSG_-_.0041D668
0041D627    009A 014C6F61   add byte ptr ds:[edx+0x616F4C01],bl
0041D62D    64:43           inc ebx
0041D62F    75 72           jnz short IPMSG_-_.0041D6A3
0041D631    73 6F           jnb short IPMSG_-_.0041D6A2
0041D633    72 41           jb short IPMSG_-_.0041D676
0041D635    009E 014C6F61   add byte ptr ds:[esi+0x616F4C01],bl
0041D63B    64:49           dec ecx                                  ; IPMSG_-_.<ModuleEntryPoint>
0041D63D    636F 6E         arpl word ptr ds:[edi+0x6E],bp
0041D640    41              inc ecx                                  ; IPMSG_-_.<ModuleEntryPoint>
0041D641    00BE 014D6573   add byte ptr ds:[esi+0x73654D01],bh
0041D647    73 61           jnb short IPMSG_-_.0041D6AA
0041D649    67:65:42        inc edx                                  ; IPMSG_-_.<ModuleEntryPoint>
0041D64C    6F              outs dx,dword ptr es:[edi]
0041D64D    78 41           js short IPMSG_-_.0041D690
0041D64F    001402          add byte ptr ds:[edx+eax],dl
0041D652    53              push ebx
0041D653    65:6E           outs dx,byte ptr es:[edi]
0041D655    64:4D           dec ebp
0041D657    65:73 73        jnb short IPMSG_-_.0041D6CD
0041D65A    61              popad
0041D65B    67:65:41        inc ecx                                  ; IPMSG_-_.<ModuleEntryPoint>
0041D65E    0000            add byte ptr ds:[eax],al
0041D660    46              inc esi                                  ; IPMSG_-_.<ModuleEntryPoint>
0041D661    0147 65         add dword ptr ds:[edi+0x65],eax
0041D664    74 53           je short IPMSG_-_.0041D6B9
0041D666    79 73           jns short IPMSG_-_.0041D6DB
0041D668    74 65           je short IPMSG_-_.0041D6CF
0041D66A    6D              ins dword ptr es:[edi],dx
0041D66B    4D              dec ebp
0041D66C    65:74 72        je short IPMSG_-_.0041D6E1
0041D66F    6963 73 0000960>imul esp,dword ptr ds:[ebx+0x73],0x19600>
0041D676    4C              dec esp
0041D677    6F              outs dx,dword ptr es:[edi]
0041D678    61              popad
0041D679    64:41           inc ecx                                  ; IPMSG_-_.<ModuleEntryPoint>
0041D67B    6363 65         arpl word ptr ds:[ebx+0x65],sp
0041D67E    6C              ins byte ptr es:[edi],dx
0041D67F    65:72 61        jb short IPMSG_-_.0041D6E3
0041D682    74 6F           je short IPMSG_-_.0041D6F3
0041D684    72 73           jb short IPMSG_-_.0041D6F9
0041D686    41              inc ecx                                  ; IPMSG_-_.<ModuleEntryPoint>
0041D687    0000            add byte ptr ds:[eax],al
0041D689    0252 65         add dl,byte ptr ds:[edx+0x65]
0041D68C    67:6973 74 6572>imul esi,dword ptr ss:[bp+di+0x74],0x695>
0041D694    6E              outs dx,byte ptr es:[edi]
0041D695    64:6F           outs dx,dword ptr es:[edi]
0041D697    77 4D           ja short IPMSG_-_.0041D6E6
0041D699    65:73 73        jnb short IPMSG_-_.0041D70F
0041D69C    61              popad
0041D69D    67:65:41        inc ecx                                  ; IPMSG_-_.<ModuleEntryPoint>
0041D6A0    0000            add byte ptr ds:[eax],al
0041D6A2    E0 01           loopdne short IPMSG_-_.0041D6A5
0041D6A4    50              push eax
0041D6A5    6F              outs dx,dword ptr es:[edi]
0041D6A6    73 74           jnb short IPMSG_-_.0041D71C
0041D6A8    51              push ecx                                 ; IPMSG_-_.<ModuleEntryPoint>
0041D6A9    75 69           jnz short IPMSG_-_.0041D714
0041D6AB    74 4D           je short IPMSG_-_.0041D6FA
0041D6AD    65:73 73        jnb short IPMSG_-_.0041D723
0041D6B0    61              popad
0041D6B1    67:65:0052 02   add byte ptr gs:[bp+si+0x2],dl
0041D6B6    53              push ebx
0041D6B7    65:74 54        je short IPMSG_-_.0041D70E
0041D6BA    696D 65 7200009>imul ebp,dword ptr ss:[ebp+0x65],0x95000>
0041D6C1    014B 69         add dword ptr ds:[ebx+0x69],ecx          ; IPMSG_-_.<ModuleEntryPoint>
0041D6C4    6C              ins byte ptr es:[edi],dx
0041D6C5    6C              ins byte ptr es:[edi],dx
0041D6C6    54              push esp
0041D6C7    696D 65 7200E30>imul ebp,dword ptr ss:[ebp+0x65],0xE3007>
0041D6CE    47              inc edi                                  ; IPMSG_-_.<ModuleEntryPoint>
0041D6CF    65:74 41        je short IPMSG_-_.0041D713
0041D6D2    73 79           jnb short IPMSG_-_.0041D74D
0041D6D4    6E              outs dx,byte ptr es:[edi]
0041D6D5    634B 65         arpl word ptr ds:[ebx+0x65],cx
0041D6D8    79 53           jns short IPMSG_-_.0041D72D
0041D6DA    74 61           je short IPMSG_-_.0041D73D
0041D6DC    74 65           je short IPMSG_-_.0041D743
0041D6DE    0000            add byte ptr ds:[eax],al
0041D6E0    8D00            lea eax,dword ptr ds:[eax]
0041D6E2    44              inc esp
0041D6E3    65:73 74        jnb short IPMSG_-_.0041D75A
0041D6E6    72 6F           jb short IPMSG_-_.0041D757
0041D6E8    79 4D           jns short IPMSG_-_.0041D737
0041D6EA    65:6E           outs dx,byte ptr es:[edi]
0041D6EC    75 00           jnz short IPMSG_-_.0041D6EE
0041D6EE    07              pop es
0041D6EF    0041 70         add byte ptr ds:[ecx+0x70],al
0041D6F2    70 65           jo short IPMSG_-_.0041D759
0041D6F4    6E              outs dx,byte ptr es:[edi]
0041D6F5    64:4D           dec ebp
0041D6F7    65:6E           outs dx,byte ptr es:[edi]
0041D6F9    75 41           jnz short IPMSG_-_.0041D73C
0041D6FB    0028            add byte ptr ds:[eax],ch
0041D6FD    0147 65         add dword ptr ds:[edi+0x65],eax
0041D700    74 4D           je short IPMSG_-_.0041D74F
0041D702    65:6E           outs dx,byte ptr es:[edi]
0041D704    75 53           jnz short IPMSG_-_.0041D759
0041D706    74 72           je short IPMSG_-_.0041D77A
0041D708    696E 67 4100002>imul ebp,dword ptr ds:[esi+0x67],0x22000>
0041D70F    0147 65         add dword ptr ds:[edi+0x65],eax
0041D712    74 4D           je short IPMSG_-_.0041D761
0041D714    65:6E           outs dx,byte ptr es:[edi]
0041D716    75 49           jnz short IPMSG_-_.0041D761
0041D718    74 65           je short IPMSG_-_.0041D77F
0041D71A    6D              ins dword ptr es:[edi],dx
0041D71B    43              inc ebx
0041D71C    6F              outs dx,dword ptr es:[edi]
0041D71D    75 6E           jnz short IPMSG_-_.0041D78D
0041D71F    74 00           je short IPMSG_-_.0041D721
0041D721    0042 01         add byte ptr ds:[edx+0x1],al
0041D724    47              inc edi                                  ; IPMSG_-_.<ModuleEntryPoint>
0041D725    65:74 53        je short IPMSG_-_.0041D77B
0041D728    75 62           jnz short IPMSG_-_.0041D78C
0041D72A    4D              dec ebp
0041D72B    65:6E           outs dx,byte ptr es:[edi]
0041D72D    75 00           jnz short IPMSG_-_.0041D72F
0041D72F    00A6 014C6F61   add byte ptr ds:[esi+0x616F4C01],ah
0041D735    64:4D           dec ebp
0041D737    65:6E           outs dx,byte ptr es:[edi]
0041D739    75 41           jnz short IPMSG_-_.0041D77C
0041D73B    0087 0044656C   add byte ptr ds:[edi+0x6C654400],al
0041D741    65:74 65        je short IPMSG_-_.0041D7A9
0041D744    4D              dec ebp
0041D745    65:6E           outs dx,byte ptr es:[edi]
0041D747    75 00           jnz short IPMSG_-_.0041D749
0041D749    0045 01         add byte ptr ss:[ebp+0x1],al
0041D74C    47              inc edi                                  ; IPMSG_-_.<ModuleEntryPoint>
0041D74D    65:74 53        je short IPMSG_-_.0041D7A3
0041D750    79 73           jns short IPMSG_-_.0041D7C5
0041D752    74 65           je short IPMSG_-_.0041D7B9
0041D754    6D              ins dword ptr es:[edi],dx
0041D755    4D              dec ebp
0041D756    65:6E           outs dx,byte ptr es:[edi]
0041D758    75 00           jnz short IPMSG_-_.0041D75A
0041D75A    2301            and eax,dword ptr ds:[ecx]
0041D75C    47              inc edi                                  ; IPMSG_-_.<ModuleEntryPoint>
0041D75D    65:74 4D        je short IPMSG_-_.0041D7AD
0041D760    65:6E           outs dx,byte ptr es:[edi]
0041D762    75 49           jnz short IPMSG_-_.0041D7AD
0041D764    74 65           je short IPMSG_-_.0041D7CB
0041D766    6D              ins dword ptr es:[edi],dx
0041D767    49              dec ecx                                  ; IPMSG_-_.<ModuleEntryPoint>
0041D768    44              inc esp
0041D769    007401 49       add byte ptr ds:[ecx+eax+0x49],dh
0041D76D    6E              outs dx,byte ptr es:[edi]
0041D76E    73 65           jnb short IPMSG_-_.0041D7D5
0041D770    72 74           jb short IPMSG_-_.0041D7E6
0041D772    4D              dec ebp
0041D773    65:6E           outs dx,byte ptr es:[edi]
0041D775    75 41           jnz short IPMSG_-_.0041D7B8
0041D777    0057 00         add byte ptr ds:[edi],dl
0041D77A    43              inc ebx
0041D77B    72 65           jb short IPMSG_-_.0041D7E2
0041D77D    61              popad
0041D77E    74 65           je short IPMSG_-_.0041D7E5
0041D780    4D              dec ebp
0041D781    65:6E           outs dx,byte ptr es:[edi]
0041D783    75 00           jnz short IPMSG_-_.0041D785
0041D785    00BD 014D6573   add byte ptr ss:[ebp+0x73654D01],bh
0041D78B    73 61           jnb short IPMSG_-_.0041D7EE
0041D78D    67:65:42        inc edx                                  ; IPMSG_-_.<ModuleEntryPoint>
0041D790    65:             prefix gs:
0041D791    65:70 00        jo short IPMSG_-_.0041D794
0041D794    7C 02           jl short IPMSG_-_.0041D798
0041D796    54              push esp
0041D797    72 61           jb short IPMSG_-_.0041D7FA
0041D799    636B 50         arpl word ptr ds:[ebx+0x50],bp
0041D79C    6F              outs dx,dword ptr es:[edi]
0041D79D    70 75           jo short IPMSG_-_.0041D814
0041D79F    70 4D           jo short IPMSG_-_.0041D7EE
0041D7A1    65:6E           outs dx,byte ptr es:[edi]
0041D7A3    75 00           jnz short IPMSG_-_.0041D7A5
0041D7A5    002C01          add byte ptr ds:[ecx+eax],ch
0041D7A8    47              inc edi                                  ; IPMSG_-_.<ModuleEntryPoint>
0041D7A9    65:74 4D        je short IPMSG_-_.0041D7F9
0041D7AC    65:73 73        jnb short IPMSG_-_.0041D822
0041D7AF    61              popad
0041D7B0    67:65:50        push eax
0041D7B3    6F              outs dx,dword ptr es:[edi]
0041D7B4    73 00           jnb short IPMSG_-_.0041D7B6
0041D7B6    5E              pop esi                                  ; kernel32.765E6359
0041D7B7    0253 65         add dl,byte ptr ds:[ebx+0x65]
0041D7BA    74 57           je short IPMSG_-_.0041D813
0041D7BC    696E 64 6F77546>imul ebp,dword ptr ds:[esi+0x64],0x65547>
0041D7C3    78 74           js short IPMSG_-_.0041D839
0041D7C5    41              inc ecx                                  ; IPMSG_-_.<ModuleEntryPoint>
0041D7C6    0000            add byte ptr ds:[eax],al
0041D7C8    D900            fld dword ptr ds:[eax]
0041D7CA    46              inc esi                                  ; IPMSG_-_.<ModuleEntryPoint>
0041D7CB    6C              ins byte ptr es:[edi],dx
0041D7CC    61              popad
0041D7CD    73 68           jnb short IPMSG_-_.0041D837
0041D7CF    57              push edi                                 ; IPMSG_-_.<ModuleEntryPoint>
0041D7D0    696E 64 6F77002>imul ebp,dword ptr ds:[esi+0x64],0x20007>
0041D7D7    0253 65         add dl,byte ptr ds:[ebx+0x65]
0041D7DA    74 43           je short IPMSG_-_.0041D81F
0041D7DC    6C              ins byte ptr es:[edi],dx
0041D7DD    61              popad
0041D7DE    73 73           jnb short IPMSG_-_.0041D853
0041D7E0    4C              dec esp
0041D7E1    6F              outs dx,dword ptr es:[edi]
0041D7E2    6E              outs dx,byte ptr es:[edi]
0041D7E3    67:41           inc ecx                                  ; IPMSG_-_.<ModuleEntryPoint>
0041D7E5    002F            add byte ptr ds:[edi],ch
0041D7E7    0253 65         add dl,byte ptr ds:[ebx+0x65]
0041D7EA    74 46           je short IPMSG_-_.0041D832
0041D7EC    6F              outs dx,dword ptr es:[edi]
0041D7ED    6375 73         arpl word ptr ss:[ebp+0x73],si
0041D7F0    0000            add byte ptr ds:[eax],al
0041D7F2    5A              pop edx                                  ; kernel32.765E6359
0041D7F3    0253 65         add dl,byte ptr ds:[ebx+0x65]
0041D7F6    74 57           je short IPMSG_-_.0041D84F
0041D7F8    696E 64 6F77506>imul ebp,dword ptr ds:[esi+0x64],0x6C507>
0041D7FF    61              popad
0041D800    6365 6D         arpl word ptr ss:[ebp+0x6D],sp
0041D803    65:6E           outs dx,byte ptr es:[edi]
0041D805    74 00           je short IPMSG_-_.0041D807
0041D807    005B 01         add byte ptr ds:[ebx+0x1],bl
0041D80A    47              inc edi                                  ; IPMSG_-_.<ModuleEntryPoint>
0041D80B    65:74 57        je short IPMSG_-_.0041D865
0041D80E    696E 64 6F77506>imul ebp,dword ptr ds:[esi+0x64],0x6C507>
0041D815    61              popad
0041D816    6365 6D         arpl word ptr ss:[ebp+0x6D],sp
0041D819    65:6E           outs dx,byte ptr es:[edi]
0041D81B    74 00           je short IPMSG_-_.0041D81D
0041D81D    006A 02         add byte ptr ds:[edx+0x2],ch
0041D820    53              push ebx
0041D821    68 6F775769     push 0x6957776F
0041D826    6E              outs dx,byte ptr es:[edi]
0041D827    64:6F           outs dx,dword ptr es:[edi]
0041D829    77 00           ja short IPMSG_-_.0041D82B
0041D82B    00B7 00456E61   add byte ptr ds:[edi+0x616E4500],dh
0041D831    626C65 57       bound ebp,qword ptr ss:[ebp+0x57]
0041D835    696E 64 6F77000>imul ebp,dword ptr ds:[esi+0x64],0x776F
0041D83C    DE01            fiadd word ptr ds:[ecx]
0041D83E    50              push eax
0041D83F    6F              outs dx,dword ptr es:[edi]
0041D840    73 74           jnb short IPMSG_-_.0041D8B6
0041D842    4D              dec ebp
0041D843    65:73 73        jnb short IPMSG_-_.0041D8B9
0041D846    61              popad
0041D847    67:65:41        inc ecx                                  ; IPMSG_-_.<ModuleEntryPoint>
0041D84A    0000            add byte ptr ds:[eax],al
0041D84C    26:0253 65      add dl,byte ptr es:[ebx+0x65]
0041D850    74 43           je short IPMSG_-_.0041D895
0041D852    75 72           jnz short IPMSG_-_.0041D8C6
0041D854    73 6F           jnb short IPMSG_-_.0041D8C5
0041D856    72 00           jb short IPMSG_-_.0041D858
0041D858    8E02            mov es,word ptr ds:[edx]
0041D85A    55              push ebp
0041D85B    6E              outs dx,byte ptr es:[edi]
0041D85C    72 65           jb short IPMSG_-_.0041D8C3
0041D85E    67:6973 74 6572>imul esi,dword ptr ss:[bp+di+0x74],0x6F4>
0041D866    74 4B           je short IPMSG_-_.0041D8B3
0041D868    65:79 00        jns short IPMSG_-_.0041D86B
0041D86B    00FA            add dl,bh
0041D86D    0152 65         add dword ptr ds:[edx+0x65],edx          ; IPMSG_-_.<ModuleEntryPoint>
0041D870    67:6973 74 6572>imul esi,dword ptr ss:[bp+di+0x74],0x6F4>
0041D878    74 4B           je short IPMSG_-_.0041D8C5
0041D87A    65:79 00        jns short IPMSG_-_.0041D87D
0041D87D    005E 01         add byte ptr ds:[esi+0x1],bl
0041D880    47              inc edi                                  ; IPMSG_-_.<ModuleEntryPoint>
0041D881    65:74 57        je short IPMSG_-_.0041D8DB
0041D884    696E 64 6F77546>imul ebp,dword ptr ds:[esi+0x64],0x65547>
0041D88B    78 74           js short IPMSG_-_.0041D901
0041D88D    41              inc ecx                                  ; IPMSG_-_.<ModuleEntryPoint>
0041D88E    0000            add byte ptr ds:[eax],al
0041D890    7B 01           jpo short IPMSG_-_.0041D893
0041D892    49              dec ecx                                  ; IPMSG_-_.<ModuleEntryPoint>
0041D893    6E              outs dx,byte ptr es:[edi]
0041D894    76 61           jbe short IPMSG_-_.0041D8F7
0041D896    6C              ins byte ptr es:[edi],dx
0041D897    696461 74 65526>imul esp,dword ptr ds:[ecx+0x74],0x6E675>
0041D89F    008A 01497344   add byte ptr ds:[edx+0x44734901],cl
0041D8A5    6C              ins byte ptr es:[edi],dx
0041D8A6    67:42           inc edx                                  ; IPMSG_-_.<ModuleEntryPoint>
0041D8A8    75 74           jnz short IPMSG_-_.0041D91E
0041D8AA    74 6F           je short IPMSG_-_.0041D91B
0041D8AC    6E              outs dx,byte ptr es:[edi]
0041D8AD    43              inc ebx
0041D8AE    68 65636B65     push 0x656B6365
0041D8B3    64:0000         add byte ptr fs:[eax],al
0041D8B6    92              xchg eax,edx                             ; IPMSG_-_.<ModuleEntryPoint>
0041D8B7    0149 73         add dword ptr ds:[ecx+0x73],ecx          ; IPMSG_-_.<ModuleEntryPoint>
0041D8BA    57              push edi                                 ; IPMSG_-_.<ModuleEntryPoint>
0041D8BB    696E 64 6F77566>imul ebp,dword ptr ds:[esi+0x64],0x69567>
0041D8C2    73 69           jnb short IPMSG_-_.0041D92D
0041D8C4    626C65 00       bound ebp,qword ptr ss:[ebp]
0041D8C8    B8 00456E64     mov eax,0x646E4500
0041D8CD    44              inc esp
0041D8CE    65:             prefix gs:
0041D8CF    66:65:72 57     jb short 0000D92A
0041D8D3    696E 64 6F77506>imul ebp,dword ptr ds:[esi+0x64],0x6F507>
0041D8DA    73 00           jnb short IPMSG_-_.0041D8DC
0041D8DC    8600            xchg byte ptr ds:[eax],al
0041D8DE    44              inc esp
0041D8DF    65:             prefix gs:
0041D8E0    66:65:72 57     jb short 0000D93B
0041D8E4    696E 64 6F77506>imul ebp,dword ptr ds:[esi+0x64],0x6F507>
0041D8EB    73 00           jnb short IPMSG_-_.0041D8ED
0041D8ED    0090 01497357   add byte ptr ds:[eax+0x57734901],dl
0041D8F3    696E 64 6F77456>imul ebp,dword ptr ds:[esi+0x64],0x6E457>
0041D8FA    61              popad
0041D8FB    626C65 64       bound ebp,qword ptr ss:[ebp+0x64]
0041D8FF    000B            add byte ptr ds:[ebx],cl
0041D901    0042 65         add byte ptr ds:[edx+0x65],al
0041D904    67:696E 44 6566>imul ebp,dword ptr ss:[bp+0x44],0x726566>
0041D90C    57              push edi                                 ; IPMSG_-_.<ModuleEntryPoint>
0041D90D    696E 64 6F77506>imul ebp,dword ptr ds:[esi+0x64],0x6F507>
0041D914    73 00           jnb short IPMSG_-_.0041D916
0041D916    C401            les eax,fword ptr ds:[ecx]
0041D918    4D              dec ebp
0041D919    6F              outs dx,dword ptr es:[edi]
0041D91A    64:6966 79 4D65>imul esp,dword ptr fs:[esi+0x79],0x756E6>
0041D922    41              inc ecx                                  ; IPMSG_-_.<ModuleEntryPoint>
0041D923    0058 00         add byte ptr ds:[eax],bl
0041D926    43              inc ebx
0041D927    72 65           jb short IPMSG_-_.0041D98E
0041D929    61              popad
0041D92A    74 65           je short IPMSG_-_.0041D991
0041D92C    50              push eax
0041D92D    6F              outs dx,dword ptr es:[edi]
0041D92E    70 75           jo short IPMSG_-_.0041D9A5
0041D930    70 4D           jo short IPMSG_-_.0041D97F
0041D932    65:6E           outs dx,byte ptr es:[edi]
0041D934    75 00           jnz short IPMSG_-_.0041D936
0041D936    58              pop eax                                  ; kernel32.765E6359
0041D937    0253 65         add dl,byte ptr ds:[ebx+0x65]
0041D93A    74 57           je short IPMSG_-_.0041D993
0041D93C    696E 64 6F774C6>imul ebp,dword ptr ds:[esi+0x64],0x6F4C7>
0041D943    6E              outs dx,byte ptr es:[edi]
0041D944    67:41           inc ecx                                  ; IPMSG_-_.<ModuleEntryPoint>
0041D946    0000            add byte ptr ds:[eax],al
0041D948    56              push esi                                 ; IPMSG_-_.<ModuleEntryPoint>
0041D949    0147 65         add dword ptr ds:[edi+0x65],eax
0041D94C    74 57           je short IPMSG_-_.0041D9A5
0041D94E    696E 64 6F774C6>imul ebp,dword ptr ds:[esi+0x64],0x6F4C7>
0041D955    6E              outs dx,byte ptr es:[edi]
0041D956    67:41           inc ecx                                  ; IPMSG_-_.<ModuleEntryPoint>
0041D958    0000            add byte ptr ds:[eax],al
0041D95A    0202            add al,byte ptr ds:[edx]
0041D95C    52              push edx                                 ; IPMSG_-_.<ModuleEntryPoint>
0041D95D    65:6C           ins byte ptr es:[edi],dx
0041D95F    65:61           popad
0041D961    73 65           jnb short IPMSG_-_.0041D9C8
0041D963    43              inc ebx
0041D964    61              popad
0041D965    70 74           jo short IPMSG_-_.0041D9DB
0041D967    75 72           jnz short IPMSG_-_.0041D9DB
0041D969    65:0000         add byte ptr gs:[eax],al
0041D96C    0A02            or al,byte ptr ds:[edx]
0041D96E    53              push ebx
0041D96F    6372 65         arpl word ptr ds:[edx+0x65],si
0041D972    65:6E           outs dx,byte ptr es:[edi]
0041D974    54              push esp
0041D975    6F              outs dx,dword ptr es:[edi]
0041D976    43              inc ebx
0041D977    6C              ins byte ptr es:[edi],dx
0041D978    6965 6E 740000F>imul esp,dword ptr ss:[ebp+0x6E],0xFC000>
0041D97F    0047 65         add byte ptr ds:[edi+0x65],al
0041D982    74 43           je short IPMSG_-_.0041D9C7
0041D984    75 72           jnz short IPMSG_-_.0041D9F8
0041D986    73 6F           jnb short IPMSG_-_.0041D9F7
0041D988    72 50           jb short IPMSG_-_.0041D9DA
0041D98A    6F              outs dx,dword ptr es:[edi]
0041D98B    73 00           jnb short IPMSG_-_.0041D98D
0041D98D    001D 02536574   add byte ptr ds:[0x74655302],bl
0041D993    43              inc ebx
0041D994    61              popad
0041D995    70 74           jo short IPMSG_-_.0041DA0B
0041D997    75 72           jnz short IPMSG_-_.0041DA0B
0041D999    65:0000         add byte ptr gs:[eax],al
0041D99C    52              push edx                                 ; IPMSG_-_.<ModuleEntryPoint>
0041D99D    0147 65         add dword ptr ds:[edi+0x65],eax
0041D9A0    74 57           je short IPMSG_-_.0041D9F9
0041D9A2    696E 64 6F77000>imul ebp,dword ptr ds:[esi+0x64],0xF0077>
0041D9A9    0253 65         add dl,byte ptr ds:[ebx+0x65]
0041D9AC    6E              outs dx,byte ptr es:[edi]
0041D9AD    64:44           inc esp
0041D9AF    6C              ins byte ptr es:[edi],dx
0041D9B0    67:49           dec ecx                                  ; IPMSG_-_.<ModuleEntryPoint>
0041D9B2    74 65           je short IPMSG_-_.0041DA19
0041D9B4    6D              ins dword ptr es:[edi],dx
0041D9B5    4D              dec ebp
0041D9B6    65:73 73        jnb short IPMSG_-_.0041DA2C
0041D9B9    61              popad
0041D9BA    67:65:41        inc ecx                                  ; IPMSG_-_.<ModuleEntryPoint>
0041D9BD    0059 00         add byte ptr ds:[ecx],bl
0041D9C0    43              inc ebx
0041D9C1    72 65           jb short IPMSG_-_.0041DA28
0041D9C3    61              popad
0041D9C4    74 65           je short IPMSG_-_.0041DA2B
0041D9C6    57              push edi                                 ; IPMSG_-_.<ModuleEntryPoint>
0041D9C7    696E 64 6F77457>imul ebp,dword ptr ds:[esi+0x64],0x78457>
0041D9CE    41              inc ecx                                  ; IPMSG_-_.<ModuleEntryPoint>
0041D9CF    00F0            add al,dh
0041D9D1    0047 65         add byte ptr ds:[edi+0x65],al
0041D9D4    74 43           je short IPMSG_-_.0041DA19
0041D9D6    6C              ins byte ptr es:[edi],dx
0041D9D7    6965 6E 7452656>imul esp,dword ptr ss:[ebp+0x6E],0x63655>
0041D9DE    74 00           je short IPMSG_-_.0041D9E0
0041D9E0    5C              pop esp                                  ; kernel32.765E6359
0041D9E1    0147 65         add dword ptr ds:[edi+0x65],eax
0041D9E4    74 57           je short IPMSG_-_.0041DA3D
0041D9E6    696E 64 6F77526>imul ebp,dword ptr ds:[esi+0x64],0x65527>
0041D9ED    637400 02       arpl word ptr ds:[eax+eax+0x2],si
0041D9F1    0147 65         add dword ptr ds:[edi+0x65],eax
0041D9F4    74 44           je short IPMSG_-_.0041DA3A
0041D9F6    6C              ins byte ptr es:[edi],dx
0041D9F7    67:49           dec ecx                                  ; IPMSG_-_.<ModuleEntryPoint>
0041D9F9    74 65           je short IPMSG_-_.0041DA60
0041D9FB    6D              ins dword ptr es:[edi],dx
0041D9FC    0000            add byte ptr ds:[eax],al
0041D9FE    35 01476574     xor eax,0x74654701
0041DA03    50              push eax
0041DA04    61              popad
0041DA05    72 65           jb short IPMSG_-_.0041DA6C
0041DA07    6E              outs dx,byte ptr es:[edi]
0041DA08    74 00           je short IPMSG_-_.0041DA0A
0041DA0A    2C 02           sub al,0x2
0041DA0C    53              push ebx
0041DA0D    65:74 44        je short IPMSG_-_.0041DA54
0041DA10    6C              ins byte ptr es:[edi],dx
0041DA11    67:49           dec ecx                                  ; IPMSG_-_.<ModuleEntryPoint>
0041DA13    74 65           je short IPMSG_-_.0041DA7A
0041DA15    6D              ins dword ptr es:[edi],dx
0041DA16    54              push esp
0041DA17    65:78 74        js short IPMSG_-_.0041DA8E
0041DA1A    41              inc ecx                                  ; IPMSG_-_.<ModuleEntryPoint>
0041DA1B    0095 00446973   add byte ptr ss:[ebp+0x73694400],dl
0041DA21    70 61           jo short IPMSG_-_.0041DA84
0041DA23    74 63           je short IPMSG_-_.0041DA88
0041DA25    68 4D657373     push 0x7373654D
0041DA2A    61              popad
0041DA2B    67:65:41        inc ecx                                  ; IPMSG_-_.<ModuleEntryPoint>
0041DA2E    0000            add byte ptr ds:[eax],al
0041DA30    8202 54         add byte ptr ds:[edx],0x54
0041DA33    72 61           jb short IPMSG_-_.0041DA96
0041DA35    6E              outs dx,byte ptr es:[edi]
0041DA36    73 6C           jnb short IPMSG_-_.0041DAA4
0041DA38    61              popad
0041DA39    74 65           je short IPMSG_-_.0041DAA0
0041DA3B    4D              dec ebp
0041DA3C    65:73 73        jnb short IPMSG_-_.0041DAB2
0041DA3F    61              popad
0041DA40    67:65:0000      add byte ptr gs:[bx+si],al
0041DA44    2A01            sub al,byte ptr ds:[ecx]
0041DA46    47              inc edi                                  ; IPMSG_-_.<ModuleEntryPoint>
0041DA47    65:74 4D        je short IPMSG_-_.0041DA97
0041DA4A    65:73 73        jnb short IPMSG_-_.0041DAC0
0041DA4D    61              popad
0041DA4E    67:65:41        inc ecx                                  ; IPMSG_-_.<ModuleEntryPoint>
0041DA51    008400 44656657 add byte ptr ds:[eax+eax+0x57666544],al
0041DA58    696E 64 6F77507>imul ebp,dword ptr ds:[esi+0x64],0x72507>
0041DA5F    6F              outs dx,dword ptr es:[edi]
0041DA60    6341 00         arpl word ptr ds:[ecx],ax
0041DA63    004F 00         add byte ptr ds:[edi],cl
0041DA66    43              inc ebx
0041DA67    72 65           jb short IPMSG_-_.0041DACE
0041DA69    61              popad
0041DA6A    74 65           je short IPMSG_-_.0041DAD1
0041DA6C    44              inc esp
0041DA6D    6961 6C 6F67506>imul esp,dword ptr ds:[ecx+0x6C],0x61506>
0041DA74    72 61           jb short IPMSG_-_.0041DAD7
0041DA76    6D              ins dword ptr es:[edi],dx
0041DA77    41              inc ecx                                  ; IPMSG_-_.<ModuleEntryPoint>
0041DA78    0000            add byte ptr ds:[eax],al
0041DA7A    93              xchg eax,ebx
0041DA7B    004469 61       add byte ptr ds:[ecx+ebp*2+0x61],al
0041DA7F    6C              ins byte ptr es:[edi],dx
0041DA80    6F              outs dx,dword ptr es:[edi]
0041DA81    67:42           inc edx                                  ; IPMSG_-_.<ModuleEntryPoint>
0041DA83    6F              outs dx,dword ptr es:[edi]
0041DA84    78 50           js short IPMSG_-_.0041DAD6
0041DA86    61              popad
0041DA87    72 61           jb short IPMSG_-_.0041DAEA
0041DA89    6D              ins dword ptr es:[edi],dx
0041DA8A    41              inc ecx                                  ; IPMSG_-_.<ModuleEntryPoint>
0041DA8B    0088 01497344   add byte ptr ds:[eax+0x44734901],cl
0041DA91    6961 6C 6F674D6>imul esp,dword ptr ds:[ecx+0x6C],0x654D6>
0041DA98    73 73           jnb short IPMSG_-_.0041DB0D
0041DA9A    61              popad
0041DA9B    67:65:41        inc ecx                                  ; IPMSG_-_.<ModuleEntryPoint>
0041DA9E    0000            add byte ptr ds:[eax],al
0041DAA0    7F 02           jg short IPMSG_-_.0041DAA4
0041DAA2    54              push esp
0041DAA3    72 61           jb short IPMSG_-_.0041DB06
0041DAA5    6E              outs dx,byte ptr es:[edi]
0041DAA6    73 6C           jnb short IPMSG_-_.0041DB14
0041DAA8    61              popad
0041DAA9    74 65           je short IPMSG_-_.0041DB10
0041DAAB    41              inc ecx                                  ; IPMSG_-_.<ModuleEntryPoint>
0041DAAC    6363 65         arpl word ptr ds:[ebx+0x65],sp
0041DAAF    6C              ins byte ptr es:[edi],dx
0041DAB0    65:72 61        jb short IPMSG_-_.0041DB14
0041DAB3    74 6F           je short IPMSG_-_.0041DB24
0041DAB5    72 41           jb short IPMSG_-_.0041DAF8
0041DAB7    008E 00446573   add byte ptr ds:[esi+0x73654400],cl
0041DABD    74 72           je short IPMSG_-_.0041DB31
0041DABF    6F              outs dx,dword ptr es:[edi]
0041DAC0    79 57           jns short IPMSG_-_.0041DB19
0041DAC2    696E 64 6F7700B>imul ebp,dword ptr ds:[esi+0x64],0xB9007>
0041DAC9    0045 6E         add byte ptr ss:[ebp+0x6E],al
0041DACC    64:44           inc esp
0041DACE    6961 6C 6F67008>imul esp,dword ptr ds:[ecx+0x6C],0x8F006>
0041DAD5    0149 73         add dword ptr ds:[ecx+0x73],ecx          ; IPMSG_-_.<ModuleEntryPoint>
0041DAD8    57              push edi                                 ; IPMSG_-_.<ModuleEntryPoint>
0041DAD9    696E 64 6F77000>imul ebp,dword ptr ds:[esi+0x64],0x776F
0041DAE0    91              xchg eax,ecx                             ; IPMSG_-_.<ModuleEntryPoint>
0041DAE1    0255 70         add dl,byte ptr ss:[ebp+0x70]
0041DAE4    64:61           popad
0041DAE6    74 65           je short IPMSG_-_.0041DB4D
0041DAE8    57              push edi                                 ; IPMSG_-_.<ModuleEntryPoint>
0041DAE9    696E 64 6F77000>imul ebp,dword ptr ds:[esi+0x64],0x776F
0041DAF0    04 01           add al,0x1
0041DAF2    47              inc edi                                  ; IPMSG_-_.<ModuleEntryPoint>
0041DAF3    65:74 44        je short IPMSG_-_.0041DB3A
0041DAF6    6C              ins byte ptr es:[edi],dx
0041DAF7    67:49           dec ecx                                  ; IPMSG_-_.<ModuleEntryPoint>
0041DAF9    74 65           je short IPMSG_-_.0041DB60
0041DAFB    6D              ins dword ptr es:[edi],dx
0041DAFC    54              push esp
0041DAFD    65:78 74        js short IPMSG_-_.0041DB74
0041DB00    41              inc ecx                                  ; IPMSG_-_.<ModuleEntryPoint>
0041DB01    000E            add byte ptr ds:[esi],cl
0041DB03    0042 72         add byte ptr ds:[edx+0x72],al
0041DB06    696E 67 57696E6>imul ebp,dword ptr ds:[esi+0x67],0x646E6>
0041DB0D    6F              outs dx,dword ptr es:[edi]
0041DB0E    77 54           ja short IPMSG_-_.0041DB64
0041DB10    6F              outs dx,dword ptr es:[edi]
0041DB11    54              push esp
0041DB12    6F              outs dx,dword ptr es:[edi]
0041DB13    70 00           jo short IPMSG_-_.0041DB15
0041DB15    0071 02         add byte ptr ds:[ecx+0x2],dh
0041DB18    53              push ebx
0041DB19    79 73           jns short IPMSG_-_.0041DB8E
0041DB1B    74 65           je short IPMSG_-_.0041DB82
0041DB1D    6D              ins dword ptr es:[edi],dx
0041DB1E    50              push eax
0041DB1F    61              popad
0041DB20    72 61           jb short IPMSG_-_.0041DB83
0041DB22    6D              ins dword ptr es:[edi],dx
0041DB23    65:74 65        je short IPMSG_-_.0041DB8B
0041DB26    72 73           jb short IPMSG_-_.0041DB9B
0041DB28    49              dec ecx                                  ; IPMSG_-_.<ModuleEntryPoint>
0041DB29    6E              outs dx,byte ptr es:[edi]
0041DB2A    66:6F           outs dx,word ptr es:[edi]
0041DB2C    41              inc ecx                                  ; IPMSG_-_.<ModuleEntryPoint>
0041DB2D    000A            add byte ptr ds:[edx],cl
0041DB2F    0041 74         add byte ptr ds:[ecx+0x74],al
0041DB32    74 61           je short IPMSG_-_.0041DB95
0041DB34    6368 54         arpl word ptr ds:[eax+0x54],bp
0041DB37    68 72656164     push 0x64616572
0041DB3C    49              dec ecx                                  ; IPMSG_-_.<ModuleEntryPoint>
0041DB3D    6E              outs dx,byte ptr es:[edi]
0041DB3E    70 75           jo short IPMSG_-_.0041DBB5
0041DB40    74 00           je short IPMSG_-_.0041DB42
0041DB42    6201            bound eax,qword ptr ds:[ecx]
0041DB44    47              inc edi                                  ; IPMSG_-_.<ModuleEntryPoint>
0041DB45    65:74 57        je short IPMSG_-_.0041DB9F
0041DB48    696E 64 6F77546>imul ebp,dword ptr ds:[esi+0x64],0x68547>
0041DB4F    72 65           jb short IPMSG_-_.0041DBB6
0041DB51    61              popad
0041DB52    64:50           push eax
0041DB54    72 6F           jb short IPMSG_-_.0041DBC5
0041DB56    6365 73         arpl word ptr ss:[ebp+0x73],sp
0041DB59    73 49           jnb short IPMSG_-_.0041DBA4
0041DB5B    64:0000         add byte ptr fs:[eax],al
0041DB5E    0801            or byte ptr ds:[ecx],al
0041DB60    47              inc edi                                  ; IPMSG_-_.<ModuleEntryPoint>
0041DB61    65:74 46        je short IPMSG_-_.0041DBAA
0041DB64    6F              outs dx,dword ptr es:[edi]
0041DB65    72 65           jb short IPMSG_-_.0041DBCC
0041DB67    67:72 6F        jb short IPMSG_-_.0041DBD9
0041DB6A    75 6E           jnz short IPMSG_-_.0041DBDA
0041DB6C    64:57           push edi                                 ; IPMSG_-_.<ModuleEntryPoint>
0041DB6E    696E 64 6F77001>imul ebp,dword ptr ds:[esi+0x64],0x1C007>
0041DB75    0253 65         add dl,byte ptr ds:[ebx+0x65]
0041DB78    74 41           je short IPMSG_-_.0041DBBB
0041DB7A    637469 76       arpl word ptr ds:[ecx+ebp*2+0x76],si
0041DB7E    65:57           push edi                                 ; IPMSG_-_.<ModuleEntryPoint>
0041DB80    696E 64 6F77006>imul ebp,dword ptr ds:[esi+0x64],0x60007>
0041DB87    0253 65         add dl,byte ptr ds:[ebx+0x65]
0041DB8A    74 57           je short IPMSG_-_.0041DBE3
0041DB8C    696E 64 6F77576>imul ebp,dword ptr ds:[esi+0x64],0x6F577>
0041DB93    72 64           jb short IPMSG_-_.0041DBF9
0041DB95    0063 01         add byte ptr ds:[ebx+0x1],ah
0041DB98    47              inc edi                                  ; IPMSG_-_.<ModuleEntryPoint>
0041DB99    65:74 57        je short IPMSG_-_.0041DBF3
0041DB9C    696E 64 6F77576>imul ebp,dword ptr ds:[esi+0x64],0x6F577>
0041DBA3    72 64           jb short IPMSG_-_.0041DC09
0041DBA5    00C9            add cl,cl
0041DBA7    014D 6F         add dword ptr ss:[ebp+0x6F],ecx          ; IPMSG_-_.<ModuleEntryPoint>
0041DBAA    76 65           jbe short IPMSG_-_.0041DC11
0041DBAC    57              push edi                                 ; IPMSG_-_.<ModuleEntryPoint>
0041DBAD    696E 64 6F77000>imul ebp,dword ptr ds:[esi+0x64],0x776F
0041DBB4    DC01            fadd qword ptr ds:[ecx]
0041DBB6    50              push eax
0041DBB7    65:             prefix gs:
0041DBB8    65:6B4D 65 73   imul ecx,dword ptr gs:[ebp+0x65],0x73
0041DBBD    73 61           jnb short IPMSG_-_.0041DC20
0041DBBF    67:65:41        inc ecx                                  ; IPMSG_-_.<ModuleEntryPoint>
0041DBC2    0000            add byte ptr ds:[eax],al
0041DBC4    16              push ss
0041DBC5    0043 61         add byte ptr ds:[ebx+0x61],al
0041DBC8    6C              ins byte ptr es:[edi],dx
0041DBC9    6C              ins byte ptr es:[edi],dx
0041DBCA    57              push edi                                 ; IPMSG_-_.<ModuleEntryPoint>
0041DBCB    696E 64 6F77507>imul ebp,dword ptr ds:[esi+0x64],0x72507>
0041DBD2    6F              outs dx,dword ptr es:[edi]
0041DBD3    6341 00         arpl word ptr ds:[ecx],ax
0041DBD6    55              push ebp
0041DBD7    53              push ebx
0041DBD8    45              inc ebp
0041DBD9    52              push edx                                 ; IPMSG_-_.<ModuleEntryPoint>
0041DBDA    3332            xor esi,dword ptr ds:[edx]
0041DBDC    2E:             prefix cs:
0041DBDD    64:6C           ins byte ptr es:[edi],dx
0041DBDF    6C              ins byte ptr es:[edi],dx
0041DBE0    0000            add byte ptr ds:[eax],al
0041DBE2    53              push ebx
0041DBE3    004465 6C       add byte ptr ss:[ebp+0x6C],al
0041DBE7    65:74 65        je short IPMSG_-_.0041DC4F
0041DBEA    4F              dec edi                                  ; IPMSG_-_.<ModuleEntryPoint>
0041DBEB    626A 65         bound ebp,qword ptr ds:[edx+0x65]
0041DBEE    637400 00       arpl word ptr ds:[eax+eax],si
0041DBF2    37              aaa
0041DBF3    0043 72         add byte ptr ds:[ebx+0x72],al
0041DBF6    65:61           popad
0041DBF8    74 65           je short IPMSG_-_.0041DC5F
0041DBFA    46              inc esi                                  ; IPMSG_-_.<ModuleEntryPoint>
0041DBFB    6F              outs dx,dword ptr es:[edi]
0041DBFC    6E              outs dx,byte ptr es:[edi]
0041DBFD    74 49           je short IPMSG_-_.0041DC48
0041DBFF    6E              outs dx,byte ptr es:[edi]
0041DC00    64:6972 65 6374>imul esi,dword ptr fs:[edx+0x65],IPMSG_->
0041DC08    4F              dec edi                                  ; IPMSG_-_.<ModuleEntryPoint>
0041DC09    0147 65         add dword ptr ds:[edi+0x65],eax
0041DC0C    74 4F           je short IPMSG_-_.0041DC5D
0041DC0E    626A 65         bound ebp,qword ptr ds:[edx+0x65]
0041DC11    637441 00       arpl word ptr ds:[ecx+eax*2],si
0041DC15    0047 44         add byte ptr ds:[edi+0x44],al
0041DC18    49              dec ecx                                  ; IPMSG_-_.<ModuleEntryPoint>
0041DC19    3332            xor esi,dword ptr ds:[edx]
0041DC1B    2E:             prefix cs:
0041DC1C    64:6C           ins byte ptr es:[edi],dx
0041DC1E    6C              ins byte ptr es:[edi],dx
0041DC1F    0009            add byte ptr ds:[ecx],cl
0041DC21    0047 65         add byte ptr ds:[edi+0x65],al
0041DC24    74 4F           je short IPMSG_-_.0041DC75
0041DC26    70 65           jo short IPMSG_-_.0041DC8D
0041DC28    6E              outs dx,byte ptr es:[edi]
0041DC29    46              inc esi                                  ; IPMSG_-_.<ModuleEntryPoint>
0041DC2A    696C65 4E 616D6>imul ebp,dword ptr ss:[ebp+0x4E],0x41656>
0041DC32    0000            add byte ptr ds:[eax],al
0041DC34    0B00            or eax,dword ptr ds:[eax]
0041DC36    47              inc edi                                  ; IPMSG_-_.<ModuleEntryPoint>
0041DC37    65:74 53        je short IPMSG_-_.0041DC8D
0041DC3A    61              popad
0041DC3B    76 65           jbe short IPMSG_-_.0041DCA2
0041DC3D    46              inc esi                                  ; IPMSG_-_.<ModuleEntryPoint>
0041DC3E    696C65 4E 616D6>imul ebp,dword ptr ss:[ebp+0x4E],0x41656>
0041DC46    0000            add byte ptr ds:[eax],al
0041DC48    0200            add al,byte ptr ds:[eax]
0041DC4A    43              inc ebx
0041DC4B    68 6F6F7365     push 0x65736F6F
0041DC50    46              inc esi                                  ; IPMSG_-_.<ModuleEntryPoint>
0041DC51    6F              outs dx,dword ptr es:[edi]
0041DC52    6E              outs dx,byte ptr es:[edi]
0041DC53    74 41           je short IPMSG_-_.0041DC96
0041DC55    0063 6F         add byte ptr ds:[ebx+0x6F],ah
0041DC58    6D              ins dword ptr es:[edi],dx
0041DC59    64:6C           ins byte ptr es:[edi],dx
0041DC5B    67:3332         xor esi,dword ptr ss:[bp+si]
0041DC5E    2E:             prefix cs:
0041DC5F    64:6C           ins byte ptr es:[edi],dx
0041DC61    6C              ins byte ptr es:[edi],dx
0041DC62    0000            add byte ptr ds:[eax],al
0041DC64    D7              xlat byte ptr ds:[ebx+al]
0041DC65    0047 65         add byte ptr ds:[edi+0x65],al
0041DC68    74 55           je short IPMSG_-_.0041DCBF
0041DC6A    73 65           jnb short IPMSG_-_.0041DCD1
0041DC6C    72 4E           jb short IPMSG_-_.0041DCBC
0041DC6E    61              popad
0041DC6F    6D              ins dword ptr es:[edi],dx
0041DC70    65:41           inc ecx                                  ; IPMSG_-_.<ModuleEntryPoint>
0041DC72    0000            add byte ptr ds:[eax],al
0041DC74    72 01           jb short IPMSG_-_.0041DC77
0041DC76    52              push edx                                 ; IPMSG_-_.<ModuleEntryPoint>
0041DC77    65:67:4F        dec edi                                  ; IPMSG_-_.<ModuleEntryPoint>
0041DC7A    70 65           jo short IPMSG_-_.0041DCE1
0041DC7C    6E              outs dx,byte ptr es:[edi]
0041DC7D    4B              dec ebx
0041DC7E    65:79 45        jns short IPMSG_-_.0041DCC6
0041DC81    78 41           js short IPMSG_-_.0041DCC4
0041DC83    005F 01         add byte ptr ds:[edi+0x1],bl
0041DC86    52              push edx                                 ; IPMSG_-_.<ModuleEntryPoint>
0041DC87    65:67:43        inc ebx
0041DC8A    72 65           jb short IPMSG_-_.0041DCF1
0041DC8C    61              popad
0041DC8D    74 65           je short IPMSG_-_.0041DCF4
0041DC8F    4B              dec ebx
0041DC90    65:79 45        jns short IPMSG_-_.0041DCD8
0041DC93    78 41           js short IPMSG_-_.0041DCD6
0041DC95    005B 01         add byte ptr ds:[ebx+0x1],bl
0041DC98    52              push edx                                 ; IPMSG_-_.<ModuleEntryPoint>
0041DC99    65:67:43        inc ebx
0041DC9C    6C              ins byte ptr es:[edi],dx
0041DC9D    6F              outs dx,dword ptr es:[edi]
0041DC9E    73 65           jnb short IPMSG_-_.0041DD05
0041DCA0    4B              dec ebx
0041DCA1    65:79 00        jns short IPMSG_-_.0041DCA4
0041DCA4    7A 01           jpe short IPMSG_-_.0041DCA7
0041DCA6    52              push edx                                 ; IPMSG_-_.<ModuleEntryPoint>
0041DCA7    65:67:51        push ecx                                 ; IPMSG_-_.<ModuleEntryPoint>
0041DCAA    75 65           jnz short IPMSG_-_.0041DD11
0041DCAC    72 79           jb short IPMSG_-_.0041DD27
0041DCAE    56              push esi                                 ; IPMSG_-_.<ModuleEntryPoint>
0041DCAF    61              popad
0041DCB0    6C              ins byte ptr es:[edi],dx
0041DCB1    75 65           jnz short IPMSG_-_.0041DD18
0041DCB3    41              inc ecx                                  ; IPMSG_-_.<ModuleEntryPoint>
0041DCB4    0000            add byte ptr ds:[eax],al
0041DCB6    7B 01           jpo short IPMSG_-_.0041DCB9
0041DCB8    52              push edx                                 ; IPMSG_-_.<ModuleEntryPoint>
0041DCB9    65:67:51        push ecx                                 ; IPMSG_-_.<ModuleEntryPoint>
0041DCBC    75 65           jnz short IPMSG_-_.0041DD23
0041DCBE    72 79           jb short IPMSG_-_.0041DD39
0041DCC0    56              push esi                                 ; IPMSG_-_.<ModuleEntryPoint>
0041DCC1    61              popad
0041DCC2    6C              ins byte ptr es:[edi],dx
0041DCC3    75 65           jnz short IPMSG_-_.0041DD2A
0041DCC5    45              inc ebp
0041DCC6    78 41           js short IPMSG_-_.0041DD09
0041DCC8    0000            add byte ptr ds:[eax],al
0041DCCA    8601            xchg byte ptr ds:[ecx],al
0041DCCC    52              push edx                                 ; IPMSG_-_.<ModuleEntryPoint>
0041DCCD    65:67:53        push ebx
0041DCD0    65:74 56        je short IPMSG_-_.0041DD29
0041DCD3    61              popad
0041DCD4    6C              ins byte ptr es:[edi],dx
0041DCD5    75 65           jnz short IPMSG_-_.0041DD3C
0041DCD7    45              inc ebp
0041DCD8    78 41           js short IPMSG_-_.0041DD1B
0041DCDA    0000            add byte ptr ds:[eax],al
0041DCDC    6201            bound eax,qword ptr ds:[ecx]
0041DCDE    52              push edx                                 ; IPMSG_-_.<ModuleEntryPoint>
0041DCDF    65:67:44        inc esp
0041DCE2    65:6C           ins byte ptr es:[edi],dx
0041DCE4    65:74 65        je short IPMSG_-_.0041DD4C
0041DCE7    4B              dec ebx
0041DCE8    65:79 41        jns short IPMSG_-_.0041DD2C
0041DCEB    006401 52       add byte ptr ds:[ecx+eax+0x52],ah
0041DCEF    65:67:44        inc esp
0041DCF2    65:6C           ins byte ptr es:[edi],dx
0041DCF4    65:74 65        je short IPMSG_-_.0041DD5C
0041DCF7    56              push esi                                 ; IPMSG_-_.<ModuleEntryPoint>
0041DCF8    61              popad
0041DCF9    6C              ins byte ptr es:[edi],dx
0041DCFA    75 65           jnz short IPMSG_-_.0041DD61
0041DCFC    41              inc ecx                                  ; IPMSG_-_.<ModuleEntryPoint>
0041DCFD    0067 01         add byte ptr ds:[edi+0x1],ah
0041DD00    52              push edx                                 ; IPMSG_-_.<ModuleEntryPoint>
0041DD01    65:67:45        inc ebp
0041DD04    6E              outs dx,byte ptr es:[edi]
0041DD05    75 6D           jnz short IPMSG_-_.0041DD74
0041DD07    4B              dec ebx
0041DD08    65:79 45        jns short IPMSG_-_.0041DD50
0041DD0B    78 41           js short IPMSG_-_.0041DD4E
0041DD0D    006A 01         add byte ptr ds:[edx+0x1],ch
0041DD10    52              push edx                                 ; IPMSG_-_.<ModuleEntryPoint>
0041DD11    65:67:45        inc ebp
0041DD14    6E              outs dx,byte ptr es:[edi]
0041DD15    75 6D           jnz short IPMSG_-_.0041DD84
0041DD17    56              push esi                                 ; IPMSG_-_.<ModuleEntryPoint>
0041DD18    61              popad
0041DD19    6C              ins byte ptr es:[edi],dx
0041DD1A    75 65           jnz short IPMSG_-_.0041DD81
0041DD1C    41              inc ecx                                  ; IPMSG_-_.<ModuleEntryPoint>
0041DD1D    0041 44         add byte ptr ds:[ecx+0x44],al
0041DD20    56              push esi                                 ; IPMSG_-_.<ModuleEntryPoint>
0041DD21    41              inc ecx                                  ; IPMSG_-_.<ModuleEntryPoint>
0041DD22    50              push eax
0041DD23    49              dec ecx                                  ; IPMSG_-_.<ModuleEntryPoint>
0041DD24    3332            xor esi,dword ptr ds:[edx]
0041DD26    2E:             prefix cs:
0041DD27    64:6C           ins byte ptr es:[edi],dx
0041DD29    6C              ins byte ptr es:[edi],dx
0041DD2A    0000            add byte ptr ds:[eax],al
0041DD2C    79 00           jns short IPMSG_-_.0041DD2E
0041DD2E    53              push ebx
0041DD2F    68 656C6C5F     push 0x5F6C6C65
0041DD34    4E              dec esi                                  ; IPMSG_-_.<ModuleEntryPoint>
0041DD35    6F              outs dx,dword ptr es:[edi]
0041DD36    74 69           je short IPMSG_-_.0041DDA1
0041DD38    66:79 49        jns short 0000DD84
0041DD3B    636F 6E         arpl word ptr ds:[edi+0x6E],bp
0041DD3E    41              inc ecx                                  ; IPMSG_-_.<ModuleEntryPoint>
0041DD3F    007400 53       add byte ptr ds:[eax+eax+0x53],dh
0041DD43    68 656C6C45     push 0x456C6C65
0041DD48    78 65           js short IPMSG_-_.0041DDAF
0041DD4A    6375 74         arpl word ptr ss:[ebp+0x74],si
0041DD4D    65:45           inc ebp
0041DD4F    78 41           js short IPMSG_-_.0041DD92
0041DD51    001D 00457874   add byte ptr ds:[0x74784500],bl
0041DD57    72 61           jb short IPMSG_-_.0041DDBA
0041DD59    637449 63       arpl word ptr ds:[ecx+ecx*2+0x63],si
0041DD5D    6F              outs dx,dword ptr es:[edi]
0041DD5E    6E              outs dx,byte ptr es:[edi]
0041DD5F    41              inc ecx                                  ; IPMSG_-_.<ModuleEntryPoint>
0041DD60    0000            add byte ptr ds:[eax],al
0041DD62    72 00           jb short IPMSG_-_.0041DD64
0041DD64    53              push ebx
0041DD65    68 656C6C45     push 0x456C6C65
0041DD6A    78 65           js short IPMSG_-_.0041DDD1
0041DD6C    6375 74         arpl word ptr ss:[ebp+0x74],si
0041DD6F    65:41           inc ecx                                  ; IPMSG_-_.<ModuleEntryPoint>
0041DD71    0050 00         add byte ptr ds:[eax],dl
0041DD74    53              push ebx
0041DD75    48              dec eax
0041DD76    47              inc edi                                  ; IPMSG_-_.<ModuleEntryPoint>
0041DD77    65:74 50        je short IPMSG_-_.0041DDCA
0041DD7A    61              popad
0041DD7B    74 68           je short IPMSG_-_.0041DDE5
0041DD7D    46              inc esi                                  ; IPMSG_-_.<ModuleEntryPoint>
0041DD7E    72 6F           jb short IPMSG_-_.0041DDEF
0041DD80    6D              ins dword ptr es:[edi],dx
0041DD81    49              dec ecx                                  ; IPMSG_-_.<ModuleEntryPoint>
0041DD82    44              inc esp
0041DD83    4C              dec esp
0041DD84    6973 74 4100003>imul esi,dword ptr ds:[ebx+0x74],0x39000>
0041DD8B    0053 48         add byte ptr ds:[ebx+0x48],dl
0041DD8E    42              inc edx                                  ; IPMSG_-_.<ModuleEntryPoint>
0041DD8F    72 6F           jb short IPMSG_-_.0041DE00
0041DD91    77 73           ja short IPMSG_-_.0041DE06
0041DD93    65:46           inc esi                                  ; IPMSG_-_.<ModuleEntryPoint>
0041DD95    6F              outs dx,dword ptr es:[edi]
0041DD96    72 46           jb short IPMSG_-_.0041DDDE
0041DD98    6F              outs dx,dword ptr es:[edi]
0041DD99    6C              ins byte ptr es:[edi],dx
0041DD9A    64:             prefix fs:
0041DD9B    65:72 41        jb short IPMSG_-_.0041DDDF
0041DD9E    0000            add byte ptr ds:[eax],al
0041DDA0    4B              dec ebx
0041DDA1    0053 48         add byte ptr ds:[ebx+0x48],dl
0041DDA4    47              inc edi                                  ; IPMSG_-_.<ModuleEntryPoint>
0041DDA5    65:74 4D        je short IPMSG_-_.0041DDF5
0041DDA8    61              popad
0041DDA9    6C              ins byte ptr es:[edi],dx
0041DDAA    6C              ins byte ptr es:[edi],dx
0041DDAB    6F              outs dx,dword ptr es:[edi]
0041DDAC    6300            arpl word ptr ds:[eax],ax
0041DDAE    1200            adc al,byte ptr ds:[eax]
0041DDB0    44              inc esp
0041DDB1    72 61           jb short IPMSG_-_.0041DE14
0041DDB3    67:46           inc esi                                  ; IPMSG_-_.<ModuleEntryPoint>
0041DDB5    696E 69 7368000>imul ebp,dword ptr ds:[esi+0x69],0x6873
0041DDBC    14 00           adc al,0x0
0041DDBE    44              inc esp
0041DDBF    72 61           jb short IPMSG_-_.0041DE22
0041DDC1    67:51           push ecx                                 ; IPMSG_-_.<ModuleEntryPoint>
0041DDC3    75 65           jnz short IPMSG_-_.0041DE2A
0041DDC5    72 79           jb short IPMSG_-_.0041DE40
0041DDC7    46              inc esi                                  ; IPMSG_-_.<ModuleEntryPoint>
0041DDC8    696C65 41 00005>imul ebp,dword ptr ss:[ebp+0x41],0x48530>
0041DDD0    45              inc ebp
0041DDD1    4C              dec esp
0041DDD2    4C              dec esp
0041DDD3    3332            xor esi,dword ptr ds:[edx]
0041DDD5    2E:             prefix cs:
0041DDD6    64:6C           ins byte ptr es:[edi],dx
0041DDD8    6C              ins byte ptr es:[edi],dx
0041DDD9    002D 00436F49   add byte ptr ds:[0x496F4300],ch
0041DDDF    6E              outs dx,byte ptr es:[edi]
0041DDE0    697469 61 6C697>imul esi,dword ptr ds:[ecx+ebp*2+0x61],0>
0041DDE8    0000            add byte ptr ds:[eax],al
0041DDEA    53              push ebx
0041DDEB    0043 6F         add byte ptr ds:[ebx+0x6F],al
0041DDEE    55              push ebp
0041DDEF    6E              outs dx,byte ptr es:[edi]
0041DDF0    696E 69 7469616>imul ebp,dword ptr ds:[esi+0x69],0x6C616>
0041DDF7    697A 65 00006F6>imul edi,dword ptr ds:[edx+0x65],0x6C6F0>
0041DDFE    65:3332         xor esi,dword ptr gs:[edx]
0041DE01    2E:             prefix cs:
0041DE02    64:6C           ins byte ptr es:[edi],dx
0041DE04    6C              ins byte ptr es:[edi],dx
0041DE05    000C00          add byte ptr ds:[eax+eax],cl
0041DE08    50              push eax
0041DE09    6C              ins byte ptr es:[edi],dx
0041DE0A    61              popad
0041DE0B    79 53           jns short IPMSG_-_.0041DE60
0041DE0D    6F              outs dx,dword ptr es:[edi]
0041DE0E    75 6E           jnz short IPMSG_-_.0041DE7E
0041DE10    64:41           inc ecx                                  ; IPMSG_-_.<ModuleEntryPoint>
0041DE12    0000            add byte ptr ds:[eax],al
0041DE14    57              push edi                                 ; IPMSG_-_.<ModuleEntryPoint>
0041DE15    49              dec ecx                                  ; IPMSG_-_.<ModuleEntryPoint>
0041DE16    4E              dec esi                                  ; IPMSG_-_.<ModuleEntryPoint>
0041DE17    4D              dec ebp
0041DE18    4D              dec ebp
0041DE19    2E:             prefix cs:
0041DE1A    64:6C           ins byte ptr es:[edi],dx
0041DE1C    6C              ins byte ptr es:[edi],dx
0041DE1D    003A            add byte ptr ds:[edx],bh
0041DE1F    0049 6D         add byte ptr ds:[ecx+0x6D],cl
0041DE22    61              popad
0041DE23    67:65:4C        dec esp
0041DE26    6973 74 5F52657>imul esi,dword ptr ds:[ebx+0x74],0x70655>
0041DE2D    6C              ins byte ptr es:[edi],dx
0041DE2E    61              popad
0041DE2F    6365 49         arpl word ptr ss:[ebp+0x49],sp
0041DE32    636F 6E         arpl word ptr ds:[edi+0x6E],bp
0041DE35    0021            add byte ptr ds:[ecx],ah
0041DE37    0049 6D         add byte ptr ds:[ecx+0x6D],cl
0041DE3A    61              popad
0041DE3B    67:65:4C        dec esp
0041DE3E    6973 74 5F43726>imul esi,dword ptr ds:[ebx+0x74],0x65724>
0041DE45    61              popad
0041DE46    74 65           je short IPMSG_-_.0041DEAD
0041DE48    0000            add byte ptr ds:[eax],al
0041DE4A    2200            and al,byte ptr ds:[eax]
0041DE4C    49              dec ecx                                  ; IPMSG_-_.<ModuleEntryPoint>
0041DE4D    6D              ins dword ptr es:[edi],dx
0041DE4E    61              popad
0041DE4F    67:65:4C        dec esp
0041DE52    6973 74 5F44657>imul esi,dword ptr ds:[ebx+0x74],0x73654>
0041DE59    74 72           je short IPMSG_-_.0041DECD
0041DE5B    6F              outs dx,dword ptr es:[edi]
0041DE5C    79 00           jns short IPMSG_-_.0041DE5E
0041DE5E    43              inc ebx
0041DE5F    4F              dec edi                                  ; IPMSG_-_.<ModuleEntryPoint>
0041DE60    4D              dec ebp
0041DE61    43              inc ebx
0041DE62    54              push esp
0041DE63    4C              dec esp
0041DE64    3332            xor esi,dword ptr ds:[edx]
0041DE66    2E:             prefix cs:
0041DE67    64:6C           ins byte ptr es:[edi],dx
0041DE69    6C              ins byte ptr es:[edi],dx
0041DE6A    0000            add byte ptr ds:[eax],al
0041DE6C    57              push edi                                 ; IPMSG_-_.<ModuleEntryPoint>
0041DE6D    53              push ebx
0041DE6E    4F              dec edi                                  ; IPMSG_-_.<ModuleEntryPoint>
0041DE6F    43              inc ebx
0041DE70    4B              dec ebx
0041DE71    3332            xor esi,dword ptr ds:[edx]
0041DE73    2E:             prefix cs:
0041DE74    64:6C           ins byte ptr es:[edi],dx
0041DE76    6C              ins byte ptr es:[edi],dx
0041DE77    0099 01486561   add byte ptr ds:[ecx+0x61654801],bl
0041DE7D    70 41           jo short IPMSG_-_.0041DEC0
0041DE7F    6C              ins byte ptr es:[edi],dx
0041DE80    6C              ins byte ptr es:[edi],dx
0041DE81    6F              outs dx,dword ptr es:[edi]
0041DE82    6300            arpl word ptr ds:[eax],ax
0041DE84    9F              lahf
0041DE85    0148 65         add dword ptr ds:[eax+0x65],ecx          ; IPMSG_-_.<ModuleEntryPoint>
0041DE88    61              popad
0041DE89    70 46           jo short IPMSG_-_.0041DED1
0041DE8B    72 65           jb short IPMSG_-_.0041DEF2
0041DE8D    65:0000         add byte ptr gs:[eax],al
0041DE90    A2 01486561     mov byte ptr ds:[0x61654801],al
0041DE95    70 52           jo short IPMSG_-_.0041DEE9
0041DE97    65:41           inc ecx                                  ; IPMSG_-_.<ModuleEntryPoint>
0041DE99    6C              ins byte ptr es:[edi],dx
0041DE9A    6C              ins byte ptr es:[edi],dx
0041DE9B    6F              outs dx,dword ptr es:[edi]
0041DE9C    6300            arpl word ptr ds:[eax],ax
0041DE9E    26:0147 65      add dword ptr es:[edi+0x65],eax
0041DEA2    74 4D           je short IPMSG_-_.0041DEF1
0041DEA4    6F              outs dx,dword ptr es:[edi]
0041DEA5    64:75 6C        jnz short IPMSG_-_.0041DF14
0041DEA8    65:48           dec eax
0041DEAA    61              popad
0041DEAB    6E              outs dx,byte ptr es:[edi]
0041DEAC    64:6C           ins byte ptr es:[edi],dx
0041DEAE    65:41           inc ecx                                  ; IPMSG_-_.<ModuleEntryPoint>
0041DEB0    0000            add byte ptr ds:[eax],al
0041DEB2    50              push eax
0041DEB3    0147 65         add dword ptr ds:[edi+0x65],eax
0041DEB6    74 53           je short IPMSG_-_.0041DF0B
0041DEB8    74 61           je short IPMSG_-_.0041DF1B
0041DEBA    72 74           jb short IPMSG_-_.0041DF30
0041DEBC    75 70           jnz short IPMSG_-_.0041DF2E
0041DEBE    49              dec ecx                                  ; IPMSG_-_.<ModuleEntryPoint>
0041DEBF    6E              outs dx,byte ptr es:[edi]
0041DEC0    66:6F           outs dx,word ptr es:[edi]
0041DEC2    41              inc ecx                                  ; IPMSG_-_.<ModuleEntryPoint>
0041DEC3    00CA            add dl,cl
0041DEC5    0047 65         add byte ptr ds:[edi+0x65],al
0041DEC8    74 43           je short IPMSG_-_.0041DF0D
0041DECA    6F              outs dx,dword ptr es:[edi]
0041DECB    6D              ins dword ptr es:[edi],dx
0041DECC    6D              ins dword ptr es:[edi],dx
0041DECD    61              popad
0041DECE    6E              outs dx,byte ptr es:[edi]
0041DECF    64:4C           dec esp
0041DED1    696E 65 41009D0>imul ebp,dword ptr ds:[esi+0x65],0x19D00>
0041DED8    48              dec eax
0041DED9    65:61           popad
0041DEDB    70 44           jo short IPMSG_-_.0041DF21
0041DEDD    65:73 74        jnb short IPMSG_-_.0041DF54
0041DEE0    72 6F           jb short IPMSG_-_.0041DF51
0041DEE2    79 00           jns short IPMSG_-_.0041DEE4
0041DEE4    9B              wait
0041DEE5    0148 65         add dword ptr ds:[eax+0x65],ecx          ; IPMSG_-_.<ModuleEntryPoint>
0041DEE8    61              popad
0041DEE9    70 43           jo short IPMSG_-_.0041DF2E
0041DEEB    72 65           jb short IPMSG_-_.0041DF52
0041DEED    61              popad
0041DEEE    74 65           je short IPMSG_-_.0041DF55
0041DEF0    0000            add byte ptr ds:[eax],al
0041DEF2    BF 02566972     mov edi,0x72695602
0041DEF7    74 75           je short IPMSG_-_.0041DF6E
0041DEF9    61              popad
0041DEFA    6C              ins byte ptr es:[edi],dx
0041DEFB    46              inc esi                                  ; IPMSG_-_.<ModuleEntryPoint>
0041DEFC    72 65           jb short IPMSG_-_.0041DF63
0041DEFE    65:00BB 0256697>add byte ptr gs:[ebx+0x72695602],bh
0041DF05    74 75           je short IPMSG_-_.0041DF7C
0041DF07    61              popad
0041DF08    6C              ins byte ptr es:[edi],dx
0041DF09    41              inc ecx                                  ; IPMSG_-_.<ModuleEntryPoint>
0041DF0A    6C              ins byte ptr es:[edi],dx
0041DF0B    6C              ins byte ptr es:[edi],dx
0041DF0C    6F              outs dx,dword ptr es:[edi]
0041DF0D    6300            arpl word ptr ds:[eax],ax
0041DF0F    009E 02546572   add byte ptr ds:[esi+0x72655402],bl
0041DF15    6D              ins dword ptr es:[edi],dx
0041DF16    696E 61 7465507>imul ebp,dword ptr ds:[esi+0x61],0x72506>
0041DF1D    6F              outs dx,dword ptr es:[edi]
0041DF1E    6365 73         arpl word ptr ss:[ebp+0x73],sp
0041DF21    73 00           jnb short IPMSG_-_.0041DF23
0041DF23    00F7            add bh,dh
0041DF25    0047 65         add byte ptr ds:[edi+0x65],al
0041DF28    74 43           je short IPMSG_-_.0041DF6D
0041DF2A    75 72           jnz short IPMSG_-_.0041DF9E
0041DF2C    72 65           jb short IPMSG_-_.0041DF93
0041DF2E    6E              outs dx,byte ptr es:[edi]
0041DF2F    74 50           je short IPMSG_-_.0041DF81
0041DF31    72 6F           jb short IPMSG_-_.0041DFA2
0041DF33    6365 73         arpl word ptr ss:[ebp+0x73],sp
0041DF36    73 00           jnb short IPMSG_-_.0041DF38
0041DF38    D202            rol byte ptr ds:[edx],cl
0041DF3A    57              push edi                                 ; IPMSG_-_.<ModuleEntryPoint>
0041DF3B    696465 43 68617>imul esp,dword ptr ss:[ebp+0x43],0x54726>
0041DF43    6F              outs dx,dword ptr es:[edi]
0041DF44    4D              dec ebp
0041DF45    75 6C           jnz short IPMSG_-_.0041DFB3
0041DF47    74 69           je short IPMSG_-_.0041DFB2
0041DF49    42              inc edx                                  ; IPMSG_-_.<ModuleEntryPoint>
0041DF4A    79 74           jns short IPMSG_-_.0041DFC0
0041DF4C    65:00E4         add ah,ah
0041DF4F    014D 75         add dword ptr ss:[ebp+0x75],ecx          ; IPMSG_-_.<ModuleEntryPoint>
0041DF52    6C              ins byte ptr es:[edi],dx
0041DF53    74 69           je short IPMSG_-_.0041DFBE
0041DF55    42              inc edx                                  ; IPMSG_-_.<ModuleEntryPoint>
0041DF56    79 74           jns short IPMSG_-_.0041DFCC
0041DF58    65:54           push esp
0041DF5A    6F              outs dx,dword ptr es:[edi]
0041DF5B    57              push edi                                 ; IPMSG_-_.<ModuleEntryPoint>
0041DF5C    696465 43 68617>imul esp,dword ptr ss:[ebp+0x43],0x72616>
0041DF64    BF 014C434D     mov edi,0x4D434C01
0041DF69    61              popad
0041DF6A    70 53           jo short IPMSG_-_.0041DFBF
0041DF6C    74 72           je short IPMSG_-_.0041DFE0
0041DF6E    696E 67 410000C>imul ebp,dword ptr ds:[esi+0x67],0xC0000>
0041DF75    014C43 4D       add dword ptr ds:[ebx+eax*2+0x4D],ecx    ; IPMSG_-_.<ModuleEntryPoint>
0041DF79    61              popad
0041DF7A    70 53           jo short IPMSG_-_.0041DFCF
0041DF7C    74 72           je short IPMSG_-_.0041DFF0
0041DF7E    696E 67 570000A>imul ebp,dword ptr ds:[esi+0x67],0xAD000>
0041DF85    0255 6E         add dl,byte ptr ss:[ebp+0x6E]
0041DF88    68 616E646C     push 0x6C646E61
0041DF8D    65:             prefix gs:
0041DF8E    64:45           inc ebp
0041DF90    78 63           js short IPMSG_-_.0041DFF5
0041DF92    65:70 74        jo short IPMSG_-_.0041E009
0041DF95    696F 6E 46696C7>imul ebp,dword ptr ds:[edi+0x6E],0x746C6>
0041DF9C    65:72 00        jb short IPMSG_-_.0041DF9F
0041DF9F    002401          add byte ptr ds:[ecx+eax],ah
0041DFA2    47              inc edi                                  ; IPMSG_-_.<ModuleEntryPoint>
0041DFA3    65:74 4D        je short IPMSG_-_.0041DFF3
0041DFA6    6F              outs dx,dword ptr es:[edi]
0041DFA7    64:75 6C        jnz short IPMSG_-_.0041E016
0041DFAA    65:46           inc esi                                  ; IPMSG_-_.<ModuleEntryPoint>
0041DFAC    696C65 4E 616D6>imul ebp,dword ptr ss:[ebp+0x4E],0x41656>
0041DFB4    0000            add byte ptr ds:[eax],al
0041DFB6    B2 00           mov dl,0x0
0041DFB8    46              inc esi                                  ; IPMSG_-_.<ModuleEntryPoint>
0041DFB9    72 65           jb short IPMSG_-_.0041E020
0041DFBB    65:45           inc ebp
0041DFBD    6E              outs dx,byte ptr es:[edi]
0041DFBE    76 69           jbe short IPMSG_-_.0041E029
0041DFC0    72 6F           jb short IPMSG_-_.0041E031
0041DFC2    6E              outs dx,byte ptr es:[edi]
0041DFC3    6D              ins dword ptr es:[edi],dx
0041DFC4    65:6E           outs dx,byte ptr es:[edi]
0041DFC6    74 53           je short IPMSG_-_.0041E01B
0041DFC8    74 72           je short IPMSG_-_.0041E03C
0041DFCA    696E 67 734100B>imul ebp,dword ptr ds:[esi+0x67],0xB3004>
0041DFD1    0046 72         add byte ptr ds:[esi+0x72],al
0041DFD4    65:             prefix gs:
0041DFD5    65:45           inc ebp
0041DFD7    6E              outs dx,byte ptr es:[edi]
0041DFD8    76 69           jbe short IPMSG_-_.0041E043
0041DFDA    72 6F           jb short IPMSG_-_.0041E04B
0041DFDC    6E              outs dx,byte ptr es:[edi]
0041DFDD    6D              ins dword ptr es:[edi],dx
0041DFDE    65:6E           outs dx,byte ptr es:[edi]
0041DFE0    74 53           je short IPMSG_-_.0041E035
0041DFE2    74 72           je short IPMSG_-_.0041E056
0041DFE4    696E 67 7357000>imul ebp,dword ptr ds:[esi+0x67],0x60057>
0041DFEB    0147 65         add dword ptr ds:[edi+0x65],eax
0041DFEE    74 45           je short IPMSG_-_.0041E035
0041DFF0    6E              outs dx,byte ptr es:[edi]
0041DFF1    76 69           jbe short IPMSG_-_.0041E05C
0041DFF3    72 6F           jb short IPMSG_-_.0041E064
0041DFF5    6E              outs dx,byte ptr es:[edi]
0041DFF6    6D              ins dword ptr es:[edi],dx
0041DFF7    65:6E           outs dx,byte ptr es:[edi]
0041DFF9    74 53           je short IPMSG_-_.0041E04E
0041DFFB    74 72           je short IPMSG_-_.0041E06F
0041DFFD    696E 67 7300080>imul ebp,dword ptr ds:[esi+0x67],0x10800>
0041E004    47              inc edi                                  ; IPMSG_-_.<ModuleEntryPoint>
0041E005    65:74 45        je short IPMSG_-_.0041E04D
0041E008    6E              outs dx,byte ptr es:[edi]
0041E009    76 69           jbe short IPMSG_-_.0041E074
0041E00B    72 6F           jb short IPMSG_-_.0041E07C
0041E00D    6E              outs dx,byte ptr es:[edi]
0041E00E    6D              ins dword ptr es:[edi],dx
0041E00F    65:6E           outs dx,byte ptr es:[edi]
0041E011    74 53           je short IPMSG_-_.0041E066
0041E013    74 72           je short IPMSG_-_.0041E087
0041E015    696E 67 7357000>imul ebp,dword ptr ds:[esi+0x67],0x5773
0041E01C    6D              ins dword ptr es:[edi],dx
0041E01D    0253 65         add dl,byte ptr ds:[ebx+0x65]
0041E020    74 48           je short IPMSG_-_.0041E06A
0041E022    61              popad
0041E023    6E              outs dx,byte ptr es:[edi]
0041E024    64:6C           ins byte ptr es:[edi],dx
0041E026    65:43           inc ebx
0041E028    6F              outs dx,dword ptr es:[edi]
0041E029    75 6E           jnz short IPMSG_-_.0041E099
0041E02B    74 00           je short IPMSG_-_.0041E02D
0041E02D    0052 01         add byte ptr ds:[edx+0x1],dl
0041E030    47              inc edi                                  ; IPMSG_-_.<ModuleEntryPoint>
0041E031    65:74 53        je short IPMSG_-_.0041E087
0041E034    74 64           je short IPMSG_-_.0041E09A
0041E036    48              dec eax
0041E037    61              popad
0041E038    6E              outs dx,byte ptr es:[edi]
0041E039    64:6C           ins byte ptr es:[edi],dx
0041E03B    65:0000         add byte ptr gs:[eax],al
0041E03E    15 01476574     adc eax,0x74654701
0041E043    46              inc esi                                  ; IPMSG_-_.<ModuleEntryPoint>
0041E044    696C65 54 79706>imul ebp,dword ptr ss:[ebp+0x54],0x65707>
0041E04C    2F              das
0041E04D    0252 74         add dl,byte ptr ds:[edx+0x74]
0041E050    6C              ins byte ptr es:[edi],dx
0041E051    55              push ebp
0041E052    6E              outs dx,byte ptr es:[edi]
0041E053    77 69           ja short IPMSG_-_.0041E0BE
0041E055    6E              outs dx,byte ptr es:[edi]
0041E056    64:0053 01      add byte ptr fs:[ebx+0x1],dl
0041E05A    47              inc edi                                  ; IPMSG_-_.<ModuleEntryPoint>
0041E05B    65:74 53        je short IPMSG_-_.0041E0B1
0041E05E    74 72           je short IPMSG_-_.0041E0D2
0041E060    696E 67 5479706>imul ebp,dword ptr ds:[esi+0x67],0x65707>
0041E067    41              inc ecx                                  ; IPMSG_-_.<ModuleEntryPoint>
0041E068    0000            add byte ptr ds:[eax],al
0041E06A    56              push esi                                 ; IPMSG_-_.<ModuleEntryPoint>
0041E06B    0147 65         add dword ptr ds:[edi+0x65],eax
0041E06E    74 53           je short IPMSG_-_.0041E0C3
0041E070    74 72           je short IPMSG_-_.0041E0E4
0041E072    696E 67 5479706>imul ebp,dword ptr ds:[esi+0x67],0x65707>
0041E079    57              push edi                                 ; IPMSG_-_.<ModuleEntryPoint>
0041E07A    0000            add byte ptr ds:[eax],al
0041E07C    BF 00476574     mov edi,0x74654700
0041E081    43              inc ebx
0041E082    50              push eax
0041E083    49              dec ecx                                  ; IPMSG_-_.<ModuleEntryPoint>
0041E084    6E              outs dx,byte ptr es:[edi]
0041E085    66:6F           outs dx,word ptr es:[edi]
0041E087    00B9 00476574   add byte ptr ds:[ecx+0x74654700],bh
0041E08D    41              inc ecx                                  ; IPMSG_-_.<ModuleEntryPoint>
0041E08E    43              inc ebx
0041E08F    50              push eax
0041E090    0000            add byte ptr ds:[eax],al
0041E092    3101            xor dword ptr ds:[ecx],eax
0041E094    47              inc edi                                  ; IPMSG_-_.<ModuleEntryPoint>
0041E095    65:74 4F        je short IPMSG_-_.0041E0E7
0041E098    45              inc ebp
0041E099    4D              dec ebp
0041E09A    43              inc ebx
0041E09B    50              push eax
0041E09C    0000            add byte ptr ds:[eax],al
0041E09E    0000            add byte ptr ds:[eax],al
0041E0A0    0000            add byte ptr ds:[eax],al
0041E0A2    0000            add byte ptr ds:[eax],al
0041E0A4    0000            add byte ptr ds:[eax],al
0041E0A6    0000            add byte ptr ds:[eax],al
0041E0A8    0000            add byte ptr ds:[eax],al
0041E0AA    0000            add byte ptr ds:[eax],al
0041E0AC    0000            add byte ptr ds:[eax],al
0041E0AE    0000            add byte ptr ds:[eax],al
0041E0B0    0000            add byte ptr ds:[eax],al
0041E0B2    0000            add byte ptr ds:[eax],al
0041E0B4    0000            add byte ptr ds:[eax],al
0041E0B6    0000            add byte ptr ds:[eax],al
0041E0B8    0000            add byte ptr ds:[eax],al
0041E0BA    0000            add byte ptr ds:[eax],al
0041E0BC    0000            add byte ptr ds:[eax],al
0041E0BE    0000            add byte ptr ds:[eax],al
0041E0C0    0000            add byte ptr ds:[eax],al
0041E0C2    0000            add byte ptr ds:[eax],al
0041E0C4    0000            add byte ptr ds:[eax],al
0041E0C6    0000            add byte ptr ds:[eax],al
0041E0C8    0000            add byte ptr ds:[eax],al
0041E0CA    0000            add byte ptr ds:[eax],al
0041E0CC    0000            add byte ptr ds:[eax],al
0041E0CE    0000            add byte ptr ds:[eax],al
0041E0D0    0000            add byte ptr ds:[eax],al
0041E0D2    0000            add byte ptr ds:[eax],al
0041E0D4    0000            add byte ptr ds:[eax],al
0041E0D6    0000            add byte ptr ds:[eax],al
0041E0D8    0000            add byte ptr ds:[eax],al
0041E0DA    0000            add byte ptr ds:[eax],al
0041E0DC    0000            add byte ptr ds:[eax],al
0041E0DE    0000            add byte ptr ds:[eax],al
0041E0E0    0000            add byte ptr ds:[eax],al
0041E0E2    0000            add byte ptr ds:[eax],al
0041E0E4    0000            add byte ptr ds:[eax],al
0041E0E6    0000            add byte ptr ds:[eax],al
0041E0E8    0000            add byte ptr ds:[eax],al
0041E0EA    0000            add byte ptr ds:[eax],al
0041E0EC    0000            add byte ptr ds:[eax],al
0041E0EE    0000            add byte ptr ds:[eax],al
0041E0F0    0000            add byte ptr ds:[eax],al
0041E0F2    0000            add byte ptr ds:[eax],al
0041E0F4    0000            add byte ptr ds:[eax],al
0041E0F6    0000            add byte ptr ds:[eax],al
0041E0F8    0000            add byte ptr ds:[eax],al
0041E0FA    0000            add byte ptr ds:[eax],al
0041E0FC    0000            add byte ptr ds:[eax],al
0041E0FE    0000            add byte ptr ds:[eax],al
0041E100    0000            add byte ptr ds:[eax],al
0041E102    0000            add byte ptr ds:[eax],al
0041E104    0000            add byte ptr ds:[eax],al
0041E106    0000            add byte ptr ds:[eax],al
0041E108    0000            add byte ptr ds:[eax],al
0041E10A    0000            add byte ptr ds:[eax],al
0041E10C    0000            add byte ptr ds:[eax],al
0041E10E    0000            add byte ptr ds:[eax],al
0041E110    0000            add byte ptr ds:[eax],al
0041E112    0000            add byte ptr ds:[eax],al
0041E114    0000            add byte ptr ds:[eax],al
0041E116    0000            add byte ptr ds:[eax],al
0041E118    0000            add byte ptr ds:[eax],al
0041E11A    0000            add byte ptr ds:[eax],al
0041E11C    0000            add byte ptr ds:[eax],al
0041E11E    0000            add byte ptr ds:[eax],al
0041E120    0000            add byte ptr ds:[eax],al
0041E122    0000            add byte ptr ds:[eax],al
0041E124    0000            add byte ptr ds:[eax],al
0041E126    0000            add byte ptr ds:[eax],al
0041E128    0000            add byte ptr ds:[eax],al
0041E12A    0000            add byte ptr ds:[eax],al
0041E12C    0000            add byte ptr ds:[eax],al
0041E12E    0000            add byte ptr ds:[eax],al
0041E130    0000            add byte ptr ds:[eax],al
0041E132    0000            add byte ptr ds:[eax],al
0041E134    0000            add byte ptr ds:[eax],al
0041E136    0000            add byte ptr ds:[eax],al
0041E138    0000            add byte ptr ds:[eax],al
0041E13A    0000            add byte ptr ds:[eax],al
0041E13C    0000            add byte ptr ds:[eax],al
0041E13E    0000            add byte ptr ds:[eax],al
0041E140    0000            add byte ptr ds:[eax],al
0041E142    0000            add byte ptr ds:[eax],al
0041E144    0000            add byte ptr ds:[eax],al
0041E146    0000            add byte ptr ds:[eax],al
0041E148    0000            add byte ptr ds:[eax],al
0041E14A    0000            add byte ptr ds:[eax],al
0041E14C    0000            add byte ptr ds:[eax],al
0041E14E    0000            add byte ptr ds:[eax],al
0041E150    0000            add byte ptr ds:[eax],al
0041E152    0000            add byte ptr ds:[eax],al
0041E154    0000            add byte ptr ds:[eax],al
0041E156    0000            add byte ptr ds:[eax],al
0041E158    0000            add byte ptr ds:[eax],al
0041E15A    0000            add byte ptr ds:[eax],al
0041E15C    0000            add byte ptr ds:[eax],al
0041E15E    0000            add byte ptr ds:[eax],al
0041E160    0000            add byte ptr ds:[eax],al
0041E162    0000            add byte ptr ds:[eax],al
0041E164    0000            add byte ptr ds:[eax],al
0041E166    0000            add byte ptr ds:[eax],al
0041E168    0000            add byte ptr ds:[eax],al
0041E16A    0000            add byte ptr ds:[eax],al
0041E16C    0000            add byte ptr ds:[eax],al
0041E16E    0000            add byte ptr ds:[eax],al
0041E170    0000            add byte ptr ds:[eax],al
0041E172    0000            add byte ptr ds:[eax],al
0041E174    0000            add byte ptr ds:[eax],al
0041E176    0000            add byte ptr ds:[eax],al
0041E178    0000            add byte ptr ds:[eax],al
0041E17A    0000            add byte ptr ds:[eax],al
0041E17C    0000            add byte ptr ds:[eax],al
0041E17E    0000            add byte ptr ds:[eax],al
0041E180    0000            add byte ptr ds:[eax],al
0041E182    0000            add byte ptr ds:[eax],al
0041E184    0000            add byte ptr ds:[eax],al
0041E186    0000            add byte ptr ds:[eax],al
0041E188    0000            add byte ptr ds:[eax],al
0041E18A    0000            add byte ptr ds:[eax],al
0041E18C    0000            add byte ptr ds:[eax],al
0041E18E    0000            add byte ptr ds:[eax],al
0041E190    0000            add byte ptr ds:[eax],al
0041E192    0000            add byte ptr ds:[eax],al
0041E194    0000            add byte ptr ds:[eax],al
0041E196    0000            add byte ptr ds:[eax],al
0041E198    0000            add byte ptr ds:[eax],al
0041E19A    0000            add byte ptr ds:[eax],al
0041E19C    0000            add byte ptr ds:[eax],al
0041E19E    0000            add byte ptr ds:[eax],al
0041E1A0    0000            add byte ptr ds:[eax],al
0041E1A2    0000            add byte ptr ds:[eax],al
0041E1A4    0000            add byte ptr ds:[eax],al
0041E1A6    0000            add byte ptr ds:[eax],al
0041E1A8    0000            add byte ptr ds:[eax],al
0041E1AA    0000            add byte ptr ds:[eax],al
0041E1AC    0000            add byte ptr ds:[eax],al
0041E1AE    0000            add byte ptr ds:[eax],al
0041E1B0    0000            add byte ptr ds:[eax],al
0041E1B2    0000            add byte ptr ds:[eax],al
0041E1B4    0000            add byte ptr ds:[eax],al
0041E1B6    0000            add byte ptr ds:[eax],al
0041E1B8    0000            add byte ptr ds:[eax],al
0041E1BA    0000            add byte ptr ds:[eax],al
0041E1BC    0000            add byte ptr ds:[eax],al
0041E1BE    0000            add byte ptr ds:[eax],al
0041E1C0    0000            add byte ptr ds:[eax],al
0041E1C2    0000            add byte ptr ds:[eax],al
0041E1C4    0000            add byte ptr ds:[eax],al
0041E1C6    0000            add byte ptr ds:[eax],al
0041E1C8    0000            add byte ptr ds:[eax],al
0041E1CA    0000            add byte ptr ds:[eax],al
0041E1CC    0000            add byte ptr ds:[eax],al
0041E1CE    0000            add byte ptr ds:[eax],al
0041E1D0    0000            add byte ptr ds:[eax],al
0041E1D2    0000            add byte ptr ds:[eax],al
0041E1D4    0000            add byte ptr ds:[eax],al
0041E1D6    0000            add byte ptr ds:[eax],al
0041E1D8    0000            add byte ptr ds:[eax],al
0041E1DA    0000            add byte ptr ds:[eax],al
0041E1DC    0000            add byte ptr ds:[eax],al
0041E1DE    0000            add byte ptr ds:[eax],al
0041E1E0    0000            add byte ptr ds:[eax],al
0041E1E2    0000            add byte ptr ds:[eax],al
0041E1E4    0000            add byte ptr ds:[eax],al
0041E1E6    0000            add byte ptr ds:[eax],al
0041E1E8    0000            add byte ptr ds:[eax],al
0041E1EA    0000            add byte ptr ds:[eax],al
0041E1EC    0000            add byte ptr ds:[eax],al
0041E1EE    0000            add byte ptr ds:[eax],al
0041E1F0    0000            add byte ptr ds:[eax],al
0041E1F2    0000            add byte ptr ds:[eax],al
0041E1F4    0000            add byte ptr ds:[eax],al
0041E1F6    0000            add byte ptr ds:[eax],al
0041E1F8    0000            add byte ptr ds:[eax],al
0041E1FA    0000            add byte ptr ds:[eax],al
0041E1FC    0000            add byte ptr ds:[eax],al
0041E1FE    0000            add byte ptr ds:[eax],al
0041E200    0000            add byte ptr ds:[eax],al
0041E202    0000            add byte ptr ds:[eax],al
0041E204    0000            add byte ptr ds:[eax],al
0041E206    0000            add byte ptr ds:[eax],al
0041E208    0000            add byte ptr ds:[eax],al
0041E20A    0000            add byte ptr ds:[eax],al
0041E20C    0000            add byte ptr ds:[eax],al
0041E20E    0000            add byte ptr ds:[eax],al
0041E210    0000            add byte ptr ds:[eax],al
0041E212    0000            add byte ptr ds:[eax],al
0041E214    0000            add byte ptr ds:[eax],al
0041E216    0000            add byte ptr ds:[eax],al
0041E218    0000            add byte ptr ds:[eax],al
0041E21A    0000            add byte ptr ds:[eax],al
0041E21C    0000            add byte ptr ds:[eax],al
0041E21E    0000            add byte ptr ds:[eax],al
0041E220    0000            add byte ptr ds:[eax],al
0041E222    0000            add byte ptr ds:[eax],al
0041E224    0000            add byte ptr ds:[eax],al
0041E226    0000            add byte ptr ds:[eax],al
0041E228    0000            add byte ptr ds:[eax],al
0041E22A    0000            add byte ptr ds:[eax],al
0041E22C    0000            add byte ptr ds:[eax],al
0041E22E    0000            add byte ptr ds:[eax],al
0041E230    0000            add byte ptr ds:[eax],al
0041E232    0000            add byte ptr ds:[eax],al
0041E234    0000            add byte ptr ds:[eax],al
0041E236    0000            add byte ptr ds:[eax],al
0041E238    0000            add byte ptr ds:[eax],al
0041E23A    0000            add byte ptr ds:[eax],al
0041E23C    0000            add byte ptr ds:[eax],al
0041E23E    0000            add byte ptr ds:[eax],al
0041E240    0000            add byte ptr ds:[eax],al
0041E242    0000            add byte ptr ds:[eax],al
0041E244    0000            add byte ptr ds:[eax],al
0041E246    0000            add byte ptr ds:[eax],al
0041E248    0000            add byte ptr ds:[eax],al
0041E24A    0000            add byte ptr ds:[eax],al
0041E24C    0000            add byte ptr ds:[eax],al
0041E24E    0000            add byte ptr ds:[eax],al
0041E250    0000            add byte ptr ds:[eax],al
0041E252    0000            add byte ptr ds:[eax],al
0041E254    0000            add byte ptr ds:[eax],al
0041E256    0000            add byte ptr ds:[eax],al
0041E258    0000            add byte ptr ds:[eax],al
0041E25A    0000            add byte ptr ds:[eax],al
0041E25C    0000            add byte ptr ds:[eax],al
0041E25E    0000            add byte ptr ds:[eax],al
0041E260    0000            add byte ptr ds:[eax],al
0041E262    0000            add byte ptr ds:[eax],al
0041E264    0000            add byte ptr ds:[eax],al
0041E266    0000            add byte ptr ds:[eax],al
0041E268    0000            add byte ptr ds:[eax],al
0041E26A    0000            add byte ptr ds:[eax],al
0041E26C    0000            add byte ptr ds:[eax],al
0041E26E    0000            add byte ptr ds:[eax],al
0041E270    0000            add byte ptr ds:[eax],al
0041E272    0000            add byte ptr ds:[eax],al
0041E274    0000            add byte ptr ds:[eax],al
0041E276    0000            add byte ptr ds:[eax],al
0041E278    0000            add byte ptr ds:[eax],al
0041E27A    0000            add byte ptr ds:[eax],al
0041E27C    0000            add byte ptr ds:[eax],al
0041E27E    0000            add byte ptr ds:[eax],al
0041E280    0000            add byte ptr ds:[eax],al
0041E282    0000            add byte ptr ds:[eax],al
0041E284    0000            add byte ptr ds:[eax],al
0041E286    0000            add byte ptr ds:[eax],al
0041E288    0000            add byte ptr ds:[eax],al
0041E28A    0000            add byte ptr ds:[eax],al
0041E28C    0000            add byte ptr ds:[eax],al
0041E28E    0000            add byte ptr ds:[eax],al
0041E290    0000            add byte ptr ds:[eax],al
0041E292    0000            add byte ptr ds:[eax],al
0041E294    0000            add byte ptr ds:[eax],al
0041E296    0000            add byte ptr ds:[eax],al
0041E298    0000            add byte ptr ds:[eax],al
0041E29A    0000            add byte ptr ds:[eax],al
0041E29C    0000            add byte ptr ds:[eax],al
0041E29E    0000            add byte ptr ds:[eax],al
0041E2A0    0000            add byte ptr ds:[eax],al
0041E2A2    0000            add byte ptr ds:[eax],al
0041E2A4    0000            add byte ptr ds:[eax],al
0041E2A6    0000            add byte ptr ds:[eax],al
0041E2A8    0000            add byte ptr ds:[eax],al
0041E2AA    0000            add byte ptr ds:[eax],al
0041E2AC    0000            add byte ptr ds:[eax],al
0041E2AE    0000            add byte ptr ds:[eax],al
0041E2B0    0000            add byte ptr ds:[eax],al
0041E2B2    0000            add byte ptr ds:[eax],al
0041E2B4    0000            add byte ptr ds:[eax],al
0041E2B6    0000            add byte ptr ds:[eax],al
0041E2B8    0000            add byte ptr ds:[eax],al
0041E2BA    0000            add byte ptr ds:[eax],al
0041E2BC    0000            add byte ptr ds:[eax],al
0041E2BE    0000            add byte ptr ds:[eax],al
0041E2C0    0000            add byte ptr ds:[eax],al
0041E2C2    0000            add byte ptr ds:[eax],al
0041E2C4    0000            add byte ptr ds:[eax],al
0041E2C6    0000            add byte ptr ds:[eax],al
0041E2C8    0000            add byte ptr ds:[eax],al
0041E2CA    0000            add byte ptr ds:[eax],al
0041E2CC    0000            add byte ptr ds:[eax],al
0041E2CE    0000            add byte ptr ds:[eax],al
0041E2D0    0000            add byte ptr ds:[eax],al
0041E2D2    0000            add byte ptr ds:[eax],al
0041E2D4    0000            add byte ptr ds:[eax],al
0041E2D6    0000            add byte ptr ds:[eax],al
0041E2D8    0000            add byte ptr ds:[eax],al
0041E2DA    0000            add byte ptr ds:[eax],al
0041E2DC    0000            add byte ptr ds:[eax],al
0041E2DE    0000            add byte ptr ds:[eax],al
0041E2E0    0000            add byte ptr ds:[eax],al
0041E2E2    0000            add byte ptr ds:[eax],al
0041E2E4    0000            add byte ptr ds:[eax],al
0041E2E6    0000            add byte ptr ds:[eax],al
0041E2E8    0000            add byte ptr ds:[eax],al
0041E2EA    0000            add byte ptr ds:[eax],al
0041E2EC    0000            add byte ptr ds:[eax],al
0041E2EE    0000            add byte ptr ds:[eax],al
0041E2F0    0000            add byte ptr ds:[eax],al
0041E2F2    0000            add byte ptr ds:[eax],al
0041E2F4    0000            add byte ptr ds:[eax],al
0041E2F6    0000            add byte ptr ds:[eax],al
0041E2F8    0000            add byte ptr ds:[eax],al
0041E2FA    0000            add byte ptr ds:[eax],al
0041E2FC    0000            add byte ptr ds:[eax],al
0041E2FE    0000            add byte ptr ds:[eax],al
0041E300    0000            add byte ptr ds:[eax],al
0041E302    0000            add byte ptr ds:[eax],al
0041E304    0000            add byte ptr ds:[eax],al
0041E306    0000            add byte ptr ds:[eax],al
0041E308    0000            add byte ptr ds:[eax],al
0041E30A    0000            add byte ptr ds:[eax],al
0041E30C    0000            add byte ptr ds:[eax],al
0041E30E    0000            add byte ptr ds:[eax],al
0041E310    0000            add byte ptr ds:[eax],al
0041E312    0000            add byte ptr ds:[eax],al
0041E314    0000            add byte ptr ds:[eax],al
0041E316    0000            add byte ptr ds:[eax],al
0041E318    0000            add byte ptr ds:[eax],al
0041E31A    0000            add byte ptr ds:[eax],al
0041E31C    0000            add byte ptr ds:[eax],al
0041E31E    0000            add byte ptr ds:[eax],al
0041E320    0000            add byte ptr ds:[eax],al
0041E322    0000            add byte ptr ds:[eax],al
0041E324    0000            add byte ptr ds:[eax],al
0041E326    0000            add byte ptr ds:[eax],al
0041E328    0000            add byte ptr ds:[eax],al
0041E32A    0000            add byte ptr ds:[eax],al
0041E32C    0000            add byte ptr ds:[eax],al
0041E32E    0000            add byte ptr ds:[eax],al
0041E330    0000            add byte ptr ds:[eax],al
0041E332    0000            add byte ptr ds:[eax],al
0041E334    0000            add byte ptr ds:[eax],al
0041E336    0000            add byte ptr ds:[eax],al
0041E338    0000            add byte ptr ds:[eax],al
0041E33A    0000            add byte ptr ds:[eax],al
0041E33C    0000            add byte ptr ds:[eax],al
0041E33E    0000            add byte ptr ds:[eax],al
0041E340    0000            add byte ptr ds:[eax],al
0041E342    0000            add byte ptr ds:[eax],al
0041E344    0000            add byte ptr ds:[eax],al
0041E346    0000            add byte ptr ds:[eax],al
0041E348    0000            add byte ptr ds:[eax],al
0041E34A    0000            add byte ptr ds:[eax],al
0041E34C    0000            add byte ptr ds:[eax],al
0041E34E    0000            add byte ptr ds:[eax],al
0041E350    0000            add byte ptr ds:[eax],al
0041E352    0000            add byte ptr ds:[eax],al
0041E354    0000            add byte ptr ds:[eax],al
0041E356    0000            add byte ptr ds:[eax],al
0041E358    0000            add byte ptr ds:[eax],al
0041E35A    0000            add byte ptr ds:[eax],al
0041E35C    0000            add byte ptr ds:[eax],al
0041E35E    0000            add byte ptr ds:[eax],al
0041E360    0000            add byte ptr ds:[eax],al
0041E362    0000            add byte ptr ds:[eax],al
0041E364    0000            add byte ptr ds:[eax],al
0041E366    0000            add byte ptr ds:[eax],al
0041E368    0000            add byte ptr ds:[eax],al
0041E36A    0000            add byte ptr ds:[eax],al
0041E36C    0000            add byte ptr ds:[eax],al
0041E36E    0000            add byte ptr ds:[eax],al
0041E370    0000            add byte ptr ds:[eax],al
0041E372    0000            add byte ptr ds:[eax],al
0041E374    0000            add byte ptr ds:[eax],al
0041E376    0000            add byte ptr ds:[eax],al
0041E378    0000            add byte ptr ds:[eax],al
0041E37A    0000            add byte ptr ds:[eax],al
0041E37C    0000            add byte ptr ds:[eax],al
0041E37E    0000            add byte ptr ds:[eax],al
0041E380    0000            add byte ptr ds:[eax],al
0041E382    0000            add byte ptr ds:[eax],al
0041E384    0000            add byte ptr ds:[eax],al
0041E386    0000            add byte ptr ds:[eax],al
0041E388    0000            add byte ptr ds:[eax],al
0041E38A    0000            add byte ptr ds:[eax],al
0041E38C    0000            add byte ptr ds:[eax],al
0041E38E    0000            add byte ptr ds:[eax],al
0041E390    0000            add byte ptr ds:[eax],al
0041E392    0000            add byte ptr ds:[eax],al
0041E394    0000            add byte ptr ds:[eax],al
0041E396    0000            add byte ptr ds:[eax],al
0041E398    0000            add byte ptr ds:[eax],al
0041E39A    0000            add byte ptr ds:[eax],al
0041E39C    0000            add byte ptr ds:[eax],al
0041E39E    0000            add byte ptr ds:[eax],al
0041E3A0    0000            add byte ptr ds:[eax],al
0041E3A2    0000            add byte ptr ds:[eax],al
0041E3A4    0000            add byte ptr ds:[eax],al
0041E3A6    0000            add byte ptr ds:[eax],al
0041E3A8    0000            add byte ptr ds:[eax],al
0041E3AA    0000            add byte ptr ds:[eax],al
0041E3AC    0000            add byte ptr ds:[eax],al
0041E3AE    0000            add byte ptr ds:[eax],al
0041E3B0    0000            add byte ptr ds:[eax],al
0041E3B2    0000            add byte ptr ds:[eax],al
0041E3B4    0000            add byte ptr ds:[eax],al
0041E3B6    0000            add byte ptr ds:[eax],al
0041E3B8    0000            add byte ptr ds:[eax],al
0041E3BA    0000            add byte ptr ds:[eax],al
0041E3BC    0000            add byte ptr ds:[eax],al
0041E3BE    0000            add byte ptr ds:[eax],al
0041E3C0    0000            add byte ptr ds:[eax],al
0041E3C2    0000            add byte ptr ds:[eax],al
0041E3C4    0000            add byte ptr ds:[eax],al
0041E3C6    0000            add byte ptr ds:[eax],al
0041E3C8    0000            add byte ptr ds:[eax],al
0041E3CA    0000            add byte ptr ds:[eax],al
0041E3CC    0000            add byte ptr ds:[eax],al
0041E3CE    0000            add byte ptr ds:[eax],al
0041E3D0    0000            add byte ptr ds:[eax],al
0041E3D2    0000            add byte ptr ds:[eax],al
0041E3D4    0000            add byte ptr ds:[eax],al
0041E3D6    0000            add byte ptr ds:[eax],al
0041E3D8    0000            add byte ptr ds:[eax],al
0041E3DA    0000            add byte ptr ds:[eax],al
0041E3DC    0000            add byte ptr ds:[eax],al
0041E3DE    0000            add byte ptr ds:[eax],al
0041E3E0    0000            add byte ptr ds:[eax],al
0041E3E2    0000            add byte ptr ds:[eax],al
0041E3E4    0000            add byte ptr ds:[eax],al
0041E3E6    0000            add byte ptr ds:[eax],al
0041E3E8    0000            add byte ptr ds:[eax],al
0041E3EA    0000            add byte ptr ds:[eax],al
0041E3EC    0000            add byte ptr ds:[eax],al
0041E3EE    0000            add byte ptr ds:[eax],al
0041E3F0    0000            add byte ptr ds:[eax],al
0041E3F2    0000            add byte ptr ds:[eax],al
0041E3F4    0000            add byte ptr ds:[eax],al
0041E3F6    0000            add byte ptr ds:[eax],al
0041E3F8    0000            add byte ptr ds:[eax],al
0041E3FA    0000            add byte ptr ds:[eax],al
0041E3FC    0000            add byte ptr ds:[eax],al
0041E3FE    0000            add byte ptr ds:[eax],al
0041E400    0000            add byte ptr ds:[eax],al
0041E402    0000            add byte ptr ds:[eax],al
0041E404    0000            add byte ptr ds:[eax],al
0041E406    0000            add byte ptr ds:[eax],al
0041E408    0000            add byte ptr ds:[eax],al
0041E40A    0000            add byte ptr ds:[eax],al
0041E40C    0000            add byte ptr ds:[eax],al
0041E40E    0000            add byte ptr ds:[eax],al
0041E410    0000            add byte ptr ds:[eax],al
0041E412    0000            add byte ptr ds:[eax],al
0041E414    0000            add byte ptr ds:[eax],al
0041E416    0000            add byte ptr ds:[eax],al
0041E418    0000            add byte ptr ds:[eax],al
0041E41A    0000            add byte ptr ds:[eax],al
0041E41C    0000            add byte ptr ds:[eax],al
0041E41E    0000            add byte ptr ds:[eax],al
0041E420    0000            add byte ptr ds:[eax],al
0041E422    0000            add byte ptr ds:[eax],al
0041E424    0000            add byte ptr ds:[eax],al
0041E426    0000            add byte ptr ds:[eax],al
0041E428    0000            add byte ptr ds:[eax],al
0041E42A    0000            add byte ptr ds:[eax],al
0041E42C    0000            add byte ptr ds:[eax],al
0041E42E    0000            add byte ptr ds:[eax],al
0041E430    0000            add byte ptr ds:[eax],al
0041E432    0000            add byte ptr ds:[eax],al
0041E434    0000            add byte ptr ds:[eax],al
0041E436    0000            add byte ptr ds:[eax],al
0041E438    0000            add byte ptr ds:[eax],al
0041E43A    0000            add byte ptr ds:[eax],al
0041E43C    0000            add byte ptr ds:[eax],al
0041E43E    0000            add byte ptr ds:[eax],al
0041E440    0000            add byte ptr ds:[eax],al
0041E442    0000            add byte ptr ds:[eax],al
0041E444    0000            add byte ptr ds:[eax],al
0041E446    0000            add byte ptr ds:[eax],al
0041E448    0000            add byte ptr ds:[eax],al
0041E44A    0000            add byte ptr ds:[eax],al
0041E44C    0000            add byte ptr ds:[eax],al
0041E44E    0000            add byte ptr ds:[eax],al
0041E450    0000            add byte ptr ds:[eax],al
0041E452    0000            add byte ptr ds:[eax],al
0041E454    0000            add byte ptr ds:[eax],al
0041E456    0000            add byte ptr ds:[eax],al
0041E458    0000            add byte ptr ds:[eax],al
0041E45A    0000            add byte ptr ds:[eax],al
0041E45C    0000            add byte ptr ds:[eax],al
0041E45E    0000            add byte ptr ds:[eax],al
0041E460    0000            add byte ptr ds:[eax],al
0041E462    0000            add byte ptr ds:[eax],al
0041E464    0000            add byte ptr ds:[eax],al
0041E466    0000            add byte ptr ds:[eax],al
0041E468    0000            add byte ptr ds:[eax],al
0041E46A    0000            add byte ptr ds:[eax],al
0041E46C    0000            add byte ptr ds:[eax],al
0041E46E    0000            add byte ptr ds:[eax],al
0041E470    0000            add byte ptr ds:[eax],al
0041E472    0000            add byte ptr ds:[eax],al
0041E474    0000            add byte ptr ds:[eax],al
0041E476    0000            add byte ptr ds:[eax],al
0041E478    0000            add byte ptr ds:[eax],al
0041E47A    0000            add byte ptr ds:[eax],al
0041E47C    0000            add byte ptr ds:[eax],al
0041E47E    0000            add byte ptr ds:[eax],al
0041E480    0000            add byte ptr ds:[eax],al
0041E482    0000            add byte ptr ds:[eax],al
0041E484    0000            add byte ptr ds:[eax],al
0041E486    0000            add byte ptr ds:[eax],al
0041E488    0000            add byte ptr ds:[eax],al
0041E48A    0000            add byte ptr ds:[eax],al
0041E48C    0000            add byte ptr ds:[eax],al
0041E48E    0000            add byte ptr ds:[eax],al
0041E490    0000            add byte ptr ds:[eax],al
0041E492    0000            add byte ptr ds:[eax],al
0041E494    0000            add byte ptr ds:[eax],al
0041E496    0000            add byte ptr ds:[eax],al
0041E498    0000            add byte ptr ds:[eax],al
0041E49A    0000            add byte ptr ds:[eax],al
0041E49C    0000            add byte ptr ds:[eax],al
0041E49E    0000            add byte ptr ds:[eax],al
0041E4A0    0000            add byte ptr ds:[eax],al
0041E4A2    0000            add byte ptr ds:[eax],al
0041E4A4    0000            add byte ptr ds:[eax],al
0041E4A6    0000            add byte ptr ds:[eax],al
0041E4A8    0000            add byte ptr ds:[eax],al
0041E4AA    0000            add byte ptr ds:[eax],al
0041E4AC    0000            add byte ptr ds:[eax],al
0041E4AE    0000            add byte ptr ds:[eax],al
0041E4B0    0000            add byte ptr ds:[eax],al
0041E4B2    0000            add byte ptr ds:[eax],al
0041E4B4    0000            add byte ptr ds:[eax],al
0041E4B6    0000            add byte ptr ds:[eax],al
0041E4B8    0000            add byte ptr ds:[eax],al
0041E4BA    0000            add byte ptr ds:[eax],al
0041E4BC    0000            add byte ptr ds:[eax],al
0041E4BE    0000            add byte ptr ds:[eax],al
0041E4C0    0000            add byte ptr ds:[eax],al
0041E4C2    0000            add byte ptr ds:[eax],al
0041E4C4    0000            add byte ptr ds:[eax],al
0041E4C6    0000            add byte ptr ds:[eax],al
0041E4C8    0000            add byte ptr ds:[eax],al
0041E4CA    0000            add byte ptr ds:[eax],al
0041E4CC    0000            add byte ptr ds:[eax],al
0041E4CE    0000            add byte ptr ds:[eax],al
0041E4D0    0000            add byte ptr ds:[eax],al
0041E4D2    0000            add byte ptr ds:[eax],al
0041E4D4    0000            add byte ptr ds:[eax],al
0041E4D6    0000            add byte ptr ds:[eax],al
0041E4D8    0000            add byte ptr ds:[eax],al
0041E4DA    0000            add byte ptr ds:[eax],al
0041E4DC    0000            add byte ptr ds:[eax],al
0041E4DE    0000            add byte ptr ds:[eax],al
0041E4E0    0000            add byte ptr ds:[eax],al
0041E4E2    0000            add byte ptr ds:[eax],al
0041E4E4    0000            add byte ptr ds:[eax],al
0041E4E6    0000            add byte ptr ds:[eax],al
0041E4E8    0000            add byte ptr ds:[eax],al
0041E4EA    0000            add byte ptr ds:[eax],al
0041E4EC    0000            add byte ptr ds:[eax],al
0041E4EE    0000            add byte ptr ds:[eax],al
0041E4F0    0000            add byte ptr ds:[eax],al
0041E4F2    0000            add byte ptr ds:[eax],al
0041E4F4    0000            add byte ptr ds:[eax],al
0041E4F6    0000            add byte ptr ds:[eax],al
0041E4F8    0000            add byte ptr ds:[eax],al
0041E4FA    0000            add byte ptr ds:[eax],al
0041E4FC    0000            add byte ptr ds:[eax],al
0041E4FE    0000            add byte ptr ds:[eax],al
0041E500    0000            add byte ptr ds:[eax],al
0041E502    0000            add byte ptr ds:[eax],al
0041E504    0000            add byte ptr ds:[eax],al
0041E506    0000            add byte ptr ds:[eax],al
0041E508    0000            add byte ptr ds:[eax],al
0041E50A    0000            add byte ptr ds:[eax],al
0041E50C    0000            add byte ptr ds:[eax],al
0041E50E    0000            add byte ptr ds:[eax],al
0041E510    0000            add byte ptr ds:[eax],al
0041E512    0000            add byte ptr ds:[eax],al
0041E514    0000            add byte ptr ds:[eax],al
0041E516    0000            add byte ptr ds:[eax],al
0041E518    0000            add byte ptr ds:[eax],al
0041E51A    0000            add byte ptr ds:[eax],al
0041E51C    0000            add byte ptr ds:[eax],al
0041E51E    0000            add byte ptr ds:[eax],al
0041E520    0000            add byte ptr ds:[eax],al
0041E522    0000            add byte ptr ds:[eax],al
0041E524    0000            add byte ptr ds:[eax],al
0041E526    0000            add byte ptr ds:[eax],al
0041E528    0000            add byte ptr ds:[eax],al
0041E52A    0000            add byte ptr ds:[eax],al
0041E52C    0000            add byte ptr ds:[eax],al
0041E52E    0000            add byte ptr ds:[eax],al
0041E530    0000            add byte ptr ds:[eax],al
0041E532    0000            add byte ptr ds:[eax],al
0041E534    0000            add byte ptr ds:[eax],al
0041E536    0000            add byte ptr ds:[eax],al
0041E538    0000            add byte ptr ds:[eax],al
0041E53A    0000            add byte ptr ds:[eax],al
0041E53C    0000            add byte ptr ds:[eax],al
0041E53E    0000            add byte ptr ds:[eax],al
0041E540    0000            add byte ptr ds:[eax],al
0041E542    0000            add byte ptr ds:[eax],al
0041E544    0000            add byte ptr ds:[eax],al
0041E546    0000            add byte ptr ds:[eax],al
0041E548    0000            add byte ptr ds:[eax],al
0041E54A    0000            add byte ptr ds:[eax],al
0041E54C    0000            add byte ptr ds:[eax],al
0041E54E    0000            add byte ptr ds:[eax],al
0041E550    0000            add byte ptr ds:[eax],al
0041E552    0000            add byte ptr ds:[eax],al
0041E554    0000            add byte ptr ds:[eax],al
0041E556    0000            add byte ptr ds:[eax],al
0041E558    0000            add byte ptr ds:[eax],al
0041E55A    0000            add byte ptr ds:[eax],al
0041E55C    0000            add byte ptr ds:[eax],al
0041E55E    0000            add byte ptr ds:[eax],al
0041E560    0000            add byte ptr ds:[eax],al
0041E562    0000            add byte ptr ds:[eax],al
0041E564    0000            add byte ptr ds:[eax],al
0041E566    0000            add byte ptr ds:[eax],al
0041E568    0000            add byte ptr ds:[eax],al
0041E56A    0000            add byte ptr ds:[eax],al
0041E56C    0000            add byte ptr ds:[eax],al
0041E56E    0000            add byte ptr ds:[eax],al
0041E570    0000            add byte ptr ds:[eax],al
0041E572    0000            add byte ptr ds:[eax],al
0041E574    0000            add byte ptr ds:[eax],al
0041E576    0000            add byte ptr ds:[eax],al
0041E578    0000            add byte ptr ds:[eax],al
0041E57A    0000            add byte ptr ds:[eax],al
0041E57C    0000            add byte ptr ds:[eax],al
0041E57E    0000            add byte ptr ds:[eax],al
0041E580    0000            add byte ptr ds:[eax],al
0041E582    0000            add byte ptr ds:[eax],al
0041E584    0000            add byte ptr ds:[eax],al
0041E586    0000            add byte ptr ds:[eax],al
0041E588    0000            add byte ptr ds:[eax],al
0041E58A    0000            add byte ptr ds:[eax],al
0041E58C    0000            add byte ptr ds:[eax],al
0041E58E    0000            add byte ptr ds:[eax],al
0041E590    0000            add byte ptr ds:[eax],al
0041E592    0000            add byte ptr ds:[eax],al
0041E594    0000            add byte ptr ds:[eax],al
0041E596    0000            add byte ptr ds:[eax],al
0041E598    0000            add byte ptr ds:[eax],al
0041E59A    0000            add byte ptr ds:[eax],al
0041E59C    0000            add byte ptr ds:[eax],al
0041E59E    0000            add byte ptr ds:[eax],al
0041E5A0    0000            add byte ptr ds:[eax],al
0041E5A2    0000            add byte ptr ds:[eax],al
0041E5A4    0000            add byte ptr ds:[eax],al
0041E5A6    0000            add byte ptr ds:[eax],al
0041E5A8    0000            add byte ptr ds:[eax],al
0041E5AA    0000            add byte ptr ds:[eax],al
0041E5AC    0000            add byte ptr ds:[eax],al
0041E5AE    0000            add byte ptr ds:[eax],al
0041E5B0    0000            add byte ptr ds:[eax],al
0041E5B2    0000            add byte ptr ds:[eax],al
0041E5B4    0000            add byte ptr ds:[eax],al
0041E5B6    0000            add byte ptr ds:[eax],al
0041E5B8    0000            add byte ptr ds:[eax],al
0041E5BA    0000            add byte ptr ds:[eax],al
0041E5BC    0000            add byte ptr ds:[eax],al
0041E5BE    0000            add byte ptr ds:[eax],al
0041E5C0    0000            add byte ptr ds:[eax],al
0041E5C2    0000            add byte ptr ds:[eax],al
0041E5C4    0000            add byte ptr ds:[eax],al
0041E5C6    0000            add byte ptr ds:[eax],al
0041E5C8    0000            add byte ptr ds:[eax],al
0041E5CA    0000            add byte ptr ds:[eax],al
0041E5CC    0000            add byte ptr ds:[eax],al
0041E5CE    0000            add byte ptr ds:[eax],al
0041E5D0    0000            add byte ptr ds:[eax],al
0041E5D2    0000            add byte ptr ds:[eax],al
0041E5D4    0000            add byte ptr ds:[eax],al
0041E5D6    0000            add byte ptr ds:[eax],al
0041E5D8    0000            add byte ptr ds:[eax],al
0041E5DA    0000            add byte ptr ds:[eax],al
0041E5DC    0000            add byte ptr ds:[eax],al
0041E5DE    0000            add byte ptr ds:[eax],al
0041E5E0    0000            add byte ptr ds:[eax],al
0041E5E2    0000            add byte ptr ds:[eax],al
0041E5E4    0000            add byte ptr ds:[eax],al
0041E5E6    0000            add byte ptr ds:[eax],al
0041E5E8    0000            add byte ptr ds:[eax],al
0041E5EA    0000            add byte ptr ds:[eax],al
0041E5EC    0000            add byte ptr ds:[eax],al
0041E5EE    0000            add byte ptr ds:[eax],al
0041E5F0    0000            add byte ptr ds:[eax],al
0041E5F2    0000            add byte ptr ds:[eax],al
0041E5F4    0000            add byte ptr ds:[eax],al
0041E5F6    0000            add byte ptr ds:[eax],al
0041E5F8    0000            add byte ptr ds:[eax],al
0041E5FA    0000            add byte ptr ds:[eax],al
0041E5FC    0000            add byte ptr ds:[eax],al
0041E5FE    0000            add byte ptr ds:[eax],al
0041E600    0000            add byte ptr ds:[eax],al
0041E602    0000            add byte ptr ds:[eax],al
0041E604    0000            add byte ptr ds:[eax],al
0041E606    0000            add byte ptr ds:[eax],al
0041E608    0000            add byte ptr ds:[eax],al
0041E60A    0000            add byte ptr ds:[eax],al
0041E60C    0000            add byte ptr ds:[eax],al
0041E60E    0000            add byte ptr ds:[eax],al
0041E610    0000            add byte ptr ds:[eax],al
0041E612    0000            add byte ptr ds:[eax],al
0041E614    0000            add byte ptr ds:[eax],al
0041E616    0000            add byte ptr ds:[eax],al
0041E618    0000            add byte ptr ds:[eax],al
0041E61A    0000            add byte ptr ds:[eax],al
0041E61C    0000            add byte ptr ds:[eax],al
0041E61E    0000            add byte ptr ds:[eax],al
0041E620    0000            add byte ptr ds:[eax],al
0041E622    0000            add byte ptr ds:[eax],al
0041E624    0000            add byte ptr ds:[eax],al
0041E626    0000            add byte ptr ds:[eax],al
0041E628    0000            add byte ptr ds:[eax],al
0041E62A    0000            add byte ptr ds:[eax],al
0041E62C    0000            add byte ptr ds:[eax],al
0041E62E    0000            add byte ptr ds:[eax],al
0041E630    0000            add byte ptr ds:[eax],al
0041E632    0000            add byte ptr ds:[eax],al
0041E634    0000            add byte ptr ds:[eax],al
0041E636    0000            add byte ptr ds:[eax],al
0041E638    0000            add byte ptr ds:[eax],al
0041E63A    0000            add byte ptr ds:[eax],al
0041E63C    0000            add byte ptr ds:[eax],al
0041E63E    0000            add byte ptr ds:[eax],al
0041E640    0000            add byte ptr ds:[eax],al
0041E642    0000            add byte ptr ds:[eax],al
0041E644    0000            add byte ptr ds:[eax],al
0041E646    0000            add byte ptr ds:[eax],al
0041E648    0000            add byte ptr ds:[eax],al
0041E64A    0000            add byte ptr ds:[eax],al
0041E64C    0000            add byte ptr ds:[eax],al
0041E64E    0000            add byte ptr ds:[eax],al
0041E650    0000            add byte ptr ds:[eax],al
0041E652    0000            add byte ptr ds:[eax],al
0041E654    0000            add byte ptr ds:[eax],al
0041E656    0000            add byte ptr ds:[eax],al
0041E658    0000            add byte ptr ds:[eax],al
0041E65A    0000            add byte ptr ds:[eax],al
0041E65C    0000            add byte ptr ds:[eax],al
0041E65E    0000            add byte ptr ds:[eax],al
0041E660    0000            add byte ptr ds:[eax],al
0041E662    0000            add byte ptr ds:[eax],al
0041E664    0000            add byte ptr ds:[eax],al
0041E666    0000            add byte ptr ds:[eax],al
0041E668    0000            add byte ptr ds:[eax],al
0041E66A    0000            add byte ptr ds:[eax],al
0041E66C    0000            add byte ptr ds:[eax],al
0041E66E    0000            add byte ptr ds:[eax],al
0041E670    0000            add byte ptr ds:[eax],al
0041E672    0000            add byte ptr ds:[eax],al
0041E674    0000            add byte ptr ds:[eax],al
0041E676    0000            add byte ptr ds:[eax],al
0041E678    0000            add byte ptr ds:[eax],al
0041E67A    0000            add byte ptr ds:[eax],al
0041E67C    0000            add byte ptr ds:[eax],al
0041E67E    0000            add byte ptr ds:[eax],al
0041E680    0000            add byte ptr ds:[eax],al
0041E682    0000            add byte ptr ds:[eax],al
0041E684    0000            add byte ptr ds:[eax],al
0041E686    0000            add byte ptr ds:[eax],al
0041E688    0000            add byte ptr ds:[eax],al
0041E68A    0000            add byte ptr ds:[eax],al
0041E68C    0000            add byte ptr ds:[eax],al
0041E68E    0000            add byte ptr ds:[eax],al
0041E690    0000            add byte ptr ds:[eax],al
0041E692    0000            add byte ptr ds:[eax],al
0041E694    0000            add byte ptr ds:[eax],al
0041E696    0000            add byte ptr ds:[eax],al
0041E698    0000            add byte ptr ds:[eax],al
0041E69A    0000            add byte ptr ds:[eax],al
0041E69C    0000            add byte ptr ds:[eax],al
0041E69E    0000            add byte ptr ds:[eax],al
0041E6A0    0000            add byte ptr ds:[eax],al
0041E6A2    0000            add byte ptr ds:[eax],al
0041E6A4    0000            add byte ptr ds:[eax],al
0041E6A6    0000            add byte ptr ds:[eax],al
0041E6A8    0000            add byte ptr ds:[eax],al
0041E6AA    0000            add byte ptr ds:[eax],al
0041E6AC    0000            add byte ptr ds:[eax],al
0041E6AE    0000            add byte ptr ds:[eax],al
0041E6B0    0000            add byte ptr ds:[eax],al
0041E6B2    0000            add byte ptr ds:[eax],al
0041E6B4    0000            add byte ptr ds:[eax],al
0041E6B6    0000            add byte ptr ds:[eax],al
0041E6B8    0000            add byte ptr ds:[eax],al
0041E6BA    0000            add byte ptr ds:[eax],al
0041E6BC    0000            add byte ptr ds:[eax],al
0041E6BE    0000            add byte ptr ds:[eax],al
0041E6C0    0000            add byte ptr ds:[eax],al
0041E6C2    0000            add byte ptr ds:[eax],al
0041E6C4    0000            add byte ptr ds:[eax],al
0041E6C6    0000            add byte ptr ds:[eax],al
0041E6C8    0000            add byte ptr ds:[eax],al
0041E6CA    0000            add byte ptr ds:[eax],al
0041E6CC    0000            add byte ptr ds:[eax],al
0041E6CE    0000            add byte ptr ds:[eax],al
0041E6D0    0000            add byte ptr ds:[eax],al
0041E6D2    0000            add byte ptr ds:[eax],al
0041E6D4    0000            add byte ptr ds:[eax],al
0041E6D6    0000            add byte ptr ds:[eax],al
0041E6D8    0000            add byte ptr ds:[eax],al
0041E6DA    0000            add byte ptr ds:[eax],al
0041E6DC    0000            add byte ptr ds:[eax],al
0041E6DE    0000            add byte ptr ds:[eax],al
0041E6E0    0000            add byte ptr ds:[eax],al
0041E6E2    0000            add byte ptr ds:[eax],al
0041E6E4    0000            add byte ptr ds:[eax],al
0041E6E6    0000            add byte ptr ds:[eax],al
0041E6E8    0000            add byte ptr ds:[eax],al
0041E6EA    0000            add byte ptr ds:[eax],al
0041E6EC    0000            add byte ptr ds:[eax],al
0041E6EE    0000            add byte ptr ds:[eax],al
0041E6F0    0000            add byte ptr ds:[eax],al
0041E6F2    0000            add byte ptr ds:[eax],al
0041E6F4    0000            add byte ptr ds:[eax],al
0041E6F6    0000            add byte ptr ds:[eax],al
0041E6F8    0000            add byte ptr ds:[eax],al
0041E6FA    0000            add byte ptr ds:[eax],al
0041E6FC    0000            add byte ptr ds:[eax],al
0041E6FE    0000            add byte ptr ds:[eax],al
0041E700    0000            add byte ptr ds:[eax],al
0041E702    0000            add byte ptr ds:[eax],al
0041E704    0000            add byte ptr ds:[eax],al
0041E706    0000            add byte ptr ds:[eax],al
0041E708    0000            add byte ptr ds:[eax],al
0041E70A    0000            add byte ptr ds:[eax],al
0041E70C    0000            add byte ptr ds:[eax],al
0041E70E    0000            add byte ptr ds:[eax],al
0041E710    0000            add byte ptr ds:[eax],al
0041E712    0000            add byte ptr ds:[eax],al
0041E714    0000            add byte ptr ds:[eax],al
0041E716    0000            add byte ptr ds:[eax],al
0041E718    0000            add byte ptr ds:[eax],al
0041E71A    0000            add byte ptr ds:[eax],al
0041E71C    0000            add byte ptr ds:[eax],al
0041E71E    0000            add byte ptr ds:[eax],al
0041E720    0000            add byte ptr ds:[eax],al
0041E722    0000            add byte ptr ds:[eax],al
0041E724    0000            add byte ptr ds:[eax],al
0041E726    0000            add byte ptr ds:[eax],al
0041E728    0000            add byte ptr ds:[eax],al
0041E72A    0000            add byte ptr ds:[eax],al
0041E72C    0000            add byte ptr ds:[eax],al
0041E72E    0000            add byte ptr ds:[eax],al
0041E730    0000            add byte ptr ds:[eax],al
0041E732    0000            add byte ptr ds:[eax],al
0041E734    0000            add byte ptr ds:[eax],al
0041E736    0000            add byte ptr ds:[eax],al
0041E738    0000            add byte ptr ds:[eax],al
0041E73A    0000            add byte ptr ds:[eax],al
0041E73C    0000            add byte ptr ds:[eax],al
0041E73E    0000            add byte ptr ds:[eax],al
0041E740    0000            add byte ptr ds:[eax],al
0041E742    0000            add byte ptr ds:[eax],al
0041E744    0000            add byte ptr ds:[eax],al
0041E746    0000            add byte ptr ds:[eax],al
0041E748    0000            add byte ptr ds:[eax],al
0041E74A    0000            add byte ptr ds:[eax],al
0041E74C    0000            add byte ptr ds:[eax],al
0041E74E    0000            add byte ptr ds:[eax],al
0041E750    0000            add byte ptr ds:[eax],al
0041E752    0000            add byte ptr ds:[eax],al
0041E754    0000            add byte ptr ds:[eax],al
0041E756    0000            add byte ptr ds:[eax],al
0041E758    0000            add byte ptr ds:[eax],al
0041E75A    0000            add byte ptr ds:[eax],al
0041E75C    0000            add byte ptr ds:[eax],al
0041E75E    0000            add byte ptr ds:[eax],al
0041E760    0000            add byte ptr ds:[eax],al
0041E762    0000            add byte ptr ds:[eax],al
0041E764    0000            add byte ptr ds:[eax],al
0041E766    0000            add byte ptr ds:[eax],al
0041E768    0000            add byte ptr ds:[eax],al
0041E76A    0000            add byte ptr ds:[eax],al
0041E76C    0000            add byte ptr ds:[eax],al
0041E76E    0000            add byte ptr ds:[eax],al
0041E770    0000            add byte ptr ds:[eax],al
0041E772    0000            add byte ptr ds:[eax],al
0041E774    0000            add byte ptr ds:[eax],al
0041E776    0000            add byte ptr ds:[eax],al
0041E778    0000            add byte ptr ds:[eax],al
0041E77A    0000            add byte ptr ds:[eax],al
0041E77C    0000            add byte ptr ds:[eax],al
0041E77E    0000            add byte ptr ds:[eax],al
0041E780    0000            add byte ptr ds:[eax],al
0041E782    0000            add byte ptr ds:[eax],al
0041E784    0000            add byte ptr ds:[eax],al
0041E786    0000            add byte ptr ds:[eax],al
0041E788    0000            add byte ptr ds:[eax],al
0041E78A    0000            add byte ptr ds:[eax],al
0041E78C    0000            add byte ptr ds:[eax],al
0041E78E    0000            add byte ptr ds:[eax],al
0041E790    0000            add byte ptr ds:[eax],al
0041E792    0000            add byte ptr ds:[eax],al
0041E794    0000            add byte ptr ds:[eax],al
0041E796    0000            add byte ptr ds:[eax],al
0041E798    0000            add byte ptr ds:[eax],al
0041E79A    0000            add byte ptr ds:[eax],al
0041E79C    0000            add byte ptr ds:[eax],al
0041E79E    0000            add byte ptr ds:[eax],al
0041E7A0    0000            add byte ptr ds:[eax],al
0041E7A2    0000            add byte ptr ds:[eax],al
0041E7A4    0000            add byte ptr ds:[eax],al
0041E7A6    0000            add byte ptr ds:[eax],al
0041E7A8    0000            add byte ptr ds:[eax],al
0041E7AA    0000            add byte ptr ds:[eax],al
0041E7AC    0000            add byte ptr ds:[eax],al
0041E7AE    0000            add byte ptr ds:[eax],al
0041E7B0    0000            add byte ptr ds:[eax],al
0041E7B2    0000            add byte ptr ds:[eax],al
0041E7B4    0000            add byte ptr ds:[eax],al
0041E7B6    0000            add byte ptr ds:[eax],al
0041E7B8    0000            add byte ptr ds:[eax],al
0041E7BA    0000            add byte ptr ds:[eax],al
0041E7BC    0000            add byte ptr ds:[eax],al
0041E7BE    0000            add byte ptr ds:[eax],al
0041E7C0    0000            add byte ptr ds:[eax],al
0041E7C2    0000            add byte ptr ds:[eax],al
0041E7C4    0000            add byte ptr ds:[eax],al
0041E7C6    0000            add byte ptr ds:[eax],al
0041E7C8    0000            add byte ptr ds:[eax],al
0041E7CA    0000            add byte ptr ds:[eax],al
0041E7CC    0000            add byte ptr ds:[eax],al
0041E7CE    0000            add byte ptr ds:[eax],al
0041E7D0    0000            add byte ptr ds:[eax],al
0041E7D2    0000            add byte ptr ds:[eax],al
0041E7D4    0000            add byte ptr ds:[eax],al
0041E7D6    0000            add byte ptr ds:[eax],al
0041E7D8    0000            add byte ptr ds:[eax],al
0041E7DA    0000            add byte ptr ds:[eax],al
0041E7DC    0000            add byte ptr ds:[eax],al
0041E7DE    0000            add byte ptr ds:[eax],al
0041E7E0    0000            add byte ptr ds:[eax],al
0041E7E2    0000            add byte ptr ds:[eax],al
0041E7E4    0000            add byte ptr ds:[eax],al
0041E7E6    0000            add byte ptr ds:[eax],al
0041E7E8    0000            add byte ptr ds:[eax],al
0041E7EA    0000            add byte ptr ds:[eax],al
0041E7EC    0000            add byte ptr ds:[eax],al
0041E7EE    0000            add byte ptr ds:[eax],al
0041E7F0    0000            add byte ptr ds:[eax],al
0041E7F2    0000            add byte ptr ds:[eax],al
0041E7F4    0000            add byte ptr ds:[eax],al
0041E7F6    0000            add byte ptr ds:[eax],al
0041E7F8    0000            add byte ptr ds:[eax],al
0041E7FA    0000            add byte ptr ds:[eax],al
0041E7FC    0000            add byte ptr ds:[eax],al
0041E7FE    0000            add byte ptr ds:[eax],al
0041E800    0000            add byte ptr ds:[eax],al
0041E802    0000            add byte ptr ds:[eax],al
0041E804    0000            add byte ptr ds:[eax],al
0041E806    0000            add byte ptr ds:[eax],al
0041E808    0000            add byte ptr ds:[eax],al
0041E80A    0000            add byte ptr ds:[eax],al
0041E80C    0000            add byte ptr ds:[eax],al
0041E80E    0000            add byte ptr ds:[eax],al
0041E810    0000            add byte ptr ds:[eax],al
0041E812    0000            add byte ptr ds:[eax],al
0041E814    0000            add byte ptr ds:[eax],al
0041E816    0000            add byte ptr ds:[eax],al
0041E818    0000            add byte ptr ds:[eax],al
0041E81A    0000            add byte ptr ds:[eax],al
0041E81C    0000            add byte ptr ds:[eax],al
0041E81E    0000            add byte ptr ds:[eax],al
0041E820    0000            add byte ptr ds:[eax],al
0041E822    0000            add byte ptr ds:[eax],al
0041E824    0000            add byte ptr ds:[eax],al
0041E826    0000            add byte ptr ds:[eax],al
0041E828    0000            add byte ptr ds:[eax],al
0041E82A    0000            add byte ptr ds:[eax],al
0041E82C    0000            add byte ptr ds:[eax],al
0041E82E    0000            add byte ptr ds:[eax],al
0041E830    0000            add byte ptr ds:[eax],al
0041E832    0000            add byte ptr ds:[eax],al
0041E834    0000            add byte ptr ds:[eax],al
0041E836    0000            add byte ptr ds:[eax],al
0041E838    0000            add byte ptr ds:[eax],al
0041E83A    0000            add byte ptr ds:[eax],al
0041E83C    0000            add byte ptr ds:[eax],al
0041E83E    0000            add byte ptr ds:[eax],al
0041E840    0000            add byte ptr ds:[eax],al
0041E842    0000            add byte ptr ds:[eax],al
0041E844    0000            add byte ptr ds:[eax],al
0041E846    0000            add byte ptr ds:[eax],al
0041E848    0000            add byte ptr ds:[eax],al
0041E84A    0000            add byte ptr ds:[eax],al
0041E84C    0000            add byte ptr ds:[eax],al
0041E84E    0000            add byte ptr ds:[eax],al
0041E850    0000            add byte ptr ds:[eax],al
0041E852    0000            add byte ptr ds:[eax],al
0041E854    0000            add byte ptr ds:[eax],al
0041E856    0000            add byte ptr ds:[eax],al
0041E858    0000            add byte ptr ds:[eax],al
0041E85A    0000            add byte ptr ds:[eax],al
0041E85C    0000            add byte ptr ds:[eax],al
0041E85E    0000            add byte ptr ds:[eax],al
0041E860    0000            add byte ptr ds:[eax],al
0041E862    0000            add byte ptr ds:[eax],al
0041E864    0000            add byte ptr ds:[eax],al
0041E866    0000            add byte ptr ds:[eax],al
0041E868    0000            add byte ptr ds:[eax],al
0041E86A    0000            add byte ptr ds:[eax],al
0041E86C    0000            add byte ptr ds:[eax],al
0041E86E    0000            add byte ptr ds:[eax],al
0041E870    0000            add byte ptr ds:[eax],al
0041E872    0000            add byte ptr ds:[eax],al
0041E874    0000            add byte ptr ds:[eax],al
0041E876    0000            add byte ptr ds:[eax],al
0041E878    0000            add byte ptr ds:[eax],al
0041E87A    0000            add byte ptr ds:[eax],al
0041E87C    0000            add byte ptr ds:[eax],al
0041E87E    0000            add byte ptr ds:[eax],al
0041E880    0000            add byte ptr ds:[eax],al
0041E882    0000            add byte ptr ds:[eax],al
0041E884    0000            add byte ptr ds:[eax],al
0041E886    0000            add byte ptr ds:[eax],al
0041E888    0000            add byte ptr ds:[eax],al
0041E88A    0000            add byte ptr ds:[eax],al
0041E88C    0000            add byte ptr ds:[eax],al
0041E88E    0000            add byte ptr ds:[eax],al
0041E890    0000            add byte ptr ds:[eax],al
0041E892    0000            add byte ptr ds:[eax],al
0041E894    0000            add byte ptr ds:[eax],al
0041E896    0000            add byte ptr ds:[eax],al
0041E898    0000            add byte ptr ds:[eax],al
0041E89A    0000            add byte ptr ds:[eax],al
0041E89C    0000            add byte ptr ds:[eax],al
0041E89E    0000            add byte ptr ds:[eax],al
0041E8A0    0000            add byte ptr ds:[eax],al
0041E8A2    0000            add byte ptr ds:[eax],al
0041E8A4    0000            add byte ptr ds:[eax],al
0041E8A6    0000            add byte ptr ds:[eax],al
0041E8A8    0000            add byte ptr ds:[eax],al
0041E8AA    0000            add byte ptr ds:[eax],al
0041E8AC    0000            add byte ptr ds:[eax],al
0041E8AE    0000            add byte ptr ds:[eax],al
0041E8B0    0000            add byte ptr ds:[eax],al
0041E8B2    0000            add byte ptr ds:[eax],al
0041E8B4    0000            add byte ptr ds:[eax],al
0041E8B6    0000            add byte ptr ds:[eax],al
0041E8B8    0000            add byte ptr ds:[eax],al
0041E8BA    0000            add byte ptr ds:[eax],al
0041E8BC    0000            add byte ptr ds:[eax],al
0041E8BE    0000            add byte ptr ds:[eax],al
0041E8C0    0000            add byte ptr ds:[eax],al
0041E8C2    0000            add byte ptr ds:[eax],al
0041E8C4    0000            add byte ptr ds:[eax],al
0041E8C6    0000            add byte ptr ds:[eax],al
0041E8C8    0000            add byte ptr ds:[eax],al
0041E8CA    0000            add byte ptr ds:[eax],al
0041E8CC    0000            add byte ptr ds:[eax],al
0041E8CE    0000            add byte ptr ds:[eax],al
0041E8D0    0000            add byte ptr ds:[eax],al
0041E8D2    0000            add byte ptr ds:[eax],al
0041E8D4    0000            add byte ptr ds:[eax],al
0041E8D6    0000            add byte ptr ds:[eax],al
0041E8D8    0000            add byte ptr ds:[eax],al
0041E8DA    0000            add byte ptr ds:[eax],al
0041E8DC    0000            add byte ptr ds:[eax],al
0041E8DE    0000            add byte ptr ds:[eax],al
0041E8E0    0000            add byte ptr ds:[eax],al
0041E8E2    0000            add byte ptr ds:[eax],al
0041E8E4    0000            add byte ptr ds:[eax],al
0041E8E6    0000            add byte ptr ds:[eax],al
0041E8E8    0000            add byte ptr ds:[eax],al
0041E8EA    0000            add byte ptr ds:[eax],al
0041E8EC    0000            add byte ptr ds:[eax],al
0041E8EE    0000            add byte ptr ds:[eax],al
0041E8F0    0000            add byte ptr ds:[eax],al
0041E8F2    0000            add byte ptr ds:[eax],al
0041E8F4    0000            add byte ptr ds:[eax],al
0041E8F6    0000            add byte ptr ds:[eax],al
0041E8F8    0000            add byte ptr ds:[eax],al
0041E8FA    0000            add byte ptr ds:[eax],al
0041E8FC    0000            add byte ptr ds:[eax],al
0041E8FE    0000            add byte ptr ds:[eax],al
0041E900    0000            add byte ptr ds:[eax],al
0041E902    0000            add byte ptr ds:[eax],al
0041E904    0000            add byte ptr ds:[eax],al
0041E906    0000            add byte ptr ds:[eax],al
0041E908    0000            add byte ptr ds:[eax],al
0041E90A    0000            add byte ptr ds:[eax],al
0041E90C    0000            add byte ptr ds:[eax],al
0041E90E    0000            add byte ptr ds:[eax],al
0041E910    0000            add byte ptr ds:[eax],al
0041E912    0000            add byte ptr ds:[eax],al
0041E914    0000            add byte ptr ds:[eax],al
0041E916    0000            add byte ptr ds:[eax],al
0041E918    0000            add byte ptr ds:[eax],al
0041E91A    0000            add byte ptr ds:[eax],al
0041E91C    0000            add byte ptr ds:[eax],al
0041E91E    0000            add byte ptr ds:[eax],al
0041E920    0000            add byte ptr ds:[eax],al
0041E922    0000            add byte ptr ds:[eax],al
0041E924    0000            add byte ptr ds:[eax],al
0041E926    0000            add byte ptr ds:[eax],al
0041E928    0000            add byte ptr ds:[eax],al
0041E92A    0000            add byte ptr ds:[eax],al
0041E92C    0000            add byte ptr ds:[eax],al
0041E92E    0000            add byte ptr ds:[eax],al
0041E930    0000            add byte ptr ds:[eax],al
0041E932    0000            add byte ptr ds:[eax],al
0041E934    0000            add byte ptr ds:[eax],al
0041E936    0000            add byte ptr ds:[eax],al
0041E938    0000            add byte ptr ds:[eax],al
0041E93A    0000            add byte ptr ds:[eax],al
0041E93C    0000            add byte ptr ds:[eax],al
0041E93E    0000            add byte ptr ds:[eax],al
0041E940    0000            add byte ptr ds:[eax],al
0041E942    0000            add byte ptr ds:[eax],al
0041E944    0000            add byte ptr ds:[eax],al
0041E946    0000            add byte ptr ds:[eax],al
0041E948    0000            add byte ptr ds:[eax],al
0041E94A    0000            add byte ptr ds:[eax],al
0041E94C    0000            add byte ptr ds:[eax],al
0041E94E    0000            add byte ptr ds:[eax],al
0041E950    0000            add byte ptr ds:[eax],al
0041E952    0000            add byte ptr ds:[eax],al
0041E954    0000            add byte ptr ds:[eax],al
0041E956    0000            add byte ptr ds:[eax],al
0041E958    0000            add byte ptr ds:[eax],al
0041E95A    0000            add byte ptr ds:[eax],al
0041E95C    0000            add byte ptr ds:[eax],al
0041E95E    0000            add byte ptr ds:[eax],al
0041E960    0000            add byte ptr ds:[eax],al
0041E962    0000            add byte ptr ds:[eax],al
0041E964    0000            add byte ptr ds:[eax],al
0041E966    0000            add byte ptr ds:[eax],al
0041E968    0000            add byte ptr ds:[eax],al
0041E96A    0000            add byte ptr ds:[eax],al
0041E96C    0000            add byte ptr ds:[eax],al
0041E96E    0000            add byte ptr ds:[eax],al
0041E970    0000            add byte ptr ds:[eax],al
0041E972    0000            add byte ptr ds:[eax],al
0041E974    0000            add byte ptr ds:[eax],al
0041E976    0000            add byte ptr ds:[eax],al
0041E978    0000            add byte ptr ds:[eax],al
0041E97A    0000            add byte ptr ds:[eax],al
0041E97C    0000            add byte ptr ds:[eax],al
0041E97E    0000            add byte ptr ds:[eax],al
0041E980    0000            add byte ptr ds:[eax],al
0041E982    0000            add byte ptr ds:[eax],al
0041E984    0000            add byte ptr ds:[eax],al
0041E986    0000            add byte ptr ds:[eax],al
0041E988    0000            add byte ptr ds:[eax],al
0041E98A    0000            add byte ptr ds:[eax],al
0041E98C    0000            add byte ptr ds:[eax],al
0041E98E    0000            add byte ptr ds:[eax],al
0041E990    0000            add byte ptr ds:[eax],al
0041E992    0000            add byte ptr ds:[eax],al
0041E994    0000            add byte ptr ds:[eax],al
0041E996    0000            add byte ptr ds:[eax],al
0041E998    0000            add byte ptr ds:[eax],al
0041E99A    0000            add byte ptr ds:[eax],al
0041E99C    0000            add byte ptr ds:[eax],al
0041E99E    0000            add byte ptr ds:[eax],al
0041E9A0    0000            add byte ptr ds:[eax],al
0041E9A2    0000            add byte ptr ds:[eax],al
0041E9A4    0000            add byte ptr ds:[eax],al
0041E9A6    0000            add byte ptr ds:[eax],al
0041E9A8    0000            add byte ptr ds:[eax],al
0041E9AA    0000            add byte ptr ds:[eax],al
0041E9AC    0000            add byte ptr ds:[eax],al
0041E9AE    0000            add byte ptr ds:[eax],al
0041E9B0    0000            add byte ptr ds:[eax],al
0041E9B2    0000            add byte ptr ds:[eax],al
0041E9B4    0000            add byte ptr ds:[eax],al
0041E9B6    0000            add byte ptr ds:[eax],al
0041E9B8    0000            add byte ptr ds:[eax],al
0041E9BA    0000            add byte ptr ds:[eax],al
0041E9BC    0000            add byte ptr ds:[eax],al
0041E9BE    0000            add byte ptr ds:[eax],al
0041E9C0    0000            add byte ptr ds:[eax],al
0041E9C2    0000            add byte ptr ds:[eax],al
0041E9C4    0000            add byte ptr ds:[eax],al
0041E9C6    0000            add byte ptr ds:[eax],al
0041E9C8    0000            add byte ptr ds:[eax],al
0041E9CA    0000            add byte ptr ds:[eax],al
0041E9CC    0000            add byte ptr ds:[eax],al
0041E9CE    0000            add byte ptr ds:[eax],al
0041E9D0    0000            add byte ptr ds:[eax],al
0041E9D2    0000            add byte ptr ds:[eax],al
0041E9D4    0000            add byte ptr ds:[eax],al
0041E9D6    0000            add byte ptr ds:[eax],al
0041E9D8    0000            add byte ptr ds:[eax],al
0041E9DA    0000            add byte ptr ds:[eax],al
0041E9DC    0000            add byte ptr ds:[eax],al
0041E9DE    0000            add byte ptr ds:[eax],al
0041E9E0    0000            add byte ptr ds:[eax],al
0041E9E2    0000            add byte ptr ds:[eax],al
0041E9E4    0000            add byte ptr ds:[eax],al
0041E9E6    0000            add byte ptr ds:[eax],al
0041E9E8    0000            add byte ptr ds:[eax],al
0041E9EA    0000            add byte ptr ds:[eax],al
0041E9EC    0000            add byte ptr ds:[eax],al
0041E9EE    0000            add byte ptr ds:[eax],al
0041E9F0    0000            add byte ptr ds:[eax],al
0041E9F2    0000            add byte ptr ds:[eax],al
0041E9F4    0000            add byte ptr ds:[eax],al
0041E9F6    0000            add byte ptr ds:[eax],al
0041E9F8    0000            add byte ptr ds:[eax],al
0041E9FA    0000            add byte ptr ds:[eax],al
0041E9FC    0000            add byte ptr ds:[eax],al
0041E9FE    0000            add byte ptr ds:[eax],al
0041EA00    0000            add byte ptr ds:[eax],al
0041EA02    0000            add byte ptr ds:[eax],al
0041EA04    0000            add byte ptr ds:[eax],al
0041EA06    0000            add byte ptr ds:[eax],al
0041EA08    0000            add byte ptr ds:[eax],al
0041EA0A    0000            add byte ptr ds:[eax],al
0041EA0C    0000            add byte ptr ds:[eax],al
0041EA0E    0000            add byte ptr ds:[eax],al
0041EA10    0000            add byte ptr ds:[eax],al
0041EA12    0000            add byte ptr ds:[eax],al
0041EA14    0000            add byte ptr ds:[eax],al
0041EA16    0000            add byte ptr ds:[eax],al
0041EA18    0000            add byte ptr ds:[eax],al
0041EA1A    0000            add byte ptr ds:[eax],al
0041EA1C    0000            add byte ptr ds:[eax],al
0041EA1E    0000            add byte ptr ds:[eax],al
0041EA20    0000            add byte ptr ds:[eax],al
0041EA22    0000            add byte ptr ds:[eax],al
0041EA24    0000            add byte ptr ds:[eax],al
0041EA26    0000            add byte ptr ds:[eax],al
0041EA28    0000            add byte ptr ds:[eax],al
0041EA2A    0000            add byte ptr ds:[eax],al
0041EA2C    0000            add byte ptr ds:[eax],al
0041EA2E    0000            add byte ptr ds:[eax],al
0041EA30    0000            add byte ptr ds:[eax],al
0041EA32    0000            add byte ptr ds:[eax],al
0041EA34    0000            add byte ptr ds:[eax],al
0041EA36    0000            add byte ptr ds:[eax],al
0041EA38    0000            add byte ptr ds:[eax],al
0041EA3A    0000            add byte ptr ds:[eax],al
0041EA3C    0000            add byte ptr ds:[eax],al
0041EA3E    0000            add byte ptr ds:[eax],al
0041EA40    0000            add byte ptr ds:[eax],al
0041EA42    0000            add byte ptr ds:[eax],al
0041EA44    0000            add byte ptr ds:[eax],al
0041EA46    0000            add byte ptr ds:[eax],al
0041EA48    0000            add byte ptr ds:[eax],al
0041EA4A    0000            add byte ptr ds:[eax],al
0041EA4C    0000            add byte ptr ds:[eax],al
0041EA4E    0000            add byte ptr ds:[eax],al
0041EA50    0000            add byte ptr ds:[eax],al
0041EA52    0000            add byte ptr ds:[eax],al
0041EA54    0000            add byte ptr ds:[eax],al
0041EA56    0000            add byte ptr ds:[eax],al
0041EA58    0000            add byte ptr ds:[eax],al
0041EA5A    0000            add byte ptr ds:[eax],al
0041EA5C    0000            add byte ptr ds:[eax],al
0041EA5E    0000            add byte ptr ds:[eax],al
0041EA60    0000            add byte ptr ds:[eax],al
0041EA62    0000            add byte ptr ds:[eax],al
0041EA64    0000            add byte ptr ds:[eax],al
0041EA66    0000            add byte ptr ds:[eax],al
0041EA68    0000            add byte ptr ds:[eax],al
0041EA6A    0000            add byte ptr ds:[eax],al
0041EA6C    0000            add byte ptr ds:[eax],al
0041EA6E    0000            add byte ptr ds:[eax],al
0041EA70    0000            add byte ptr ds:[eax],al
0041EA72    0000            add byte ptr ds:[eax],al
0041EA74    0000            add byte ptr ds:[eax],al
0041EA76    0000            add byte ptr ds:[eax],al
0041EA78    0000            add byte ptr ds:[eax],al
0041EA7A    0000            add byte ptr ds:[eax],al
0041EA7C    0000            add byte ptr ds:[eax],al
0041EA7E    0000            add byte ptr ds:[eax],al
0041EA80    0000            add byte ptr ds:[eax],al
0041EA82    0000            add byte ptr ds:[eax],al
0041EA84    0000            add byte ptr ds:[eax],al
0041EA86    0000            add byte ptr ds:[eax],al
0041EA88    0000            add byte ptr ds:[eax],al
0041EA8A    0000            add byte ptr ds:[eax],al
0041EA8C    0000            add byte ptr ds:[eax],al
0041EA8E    0000            add byte ptr ds:[eax],al
0041EA90    0000            add byte ptr ds:[eax],al
0041EA92    0000            add byte ptr ds:[eax],al
0041EA94    0000            add byte ptr ds:[eax],al
0041EA96    0000            add byte ptr ds:[eax],al
0041EA98    0000            add byte ptr ds:[eax],al
0041EA9A    0000            add byte ptr ds:[eax],al
0041EA9C    0000            add byte ptr ds:[eax],al
0041EA9E    0000            add byte ptr ds:[eax],al
0041EAA0    0000            add byte ptr ds:[eax],al
0041EAA2    0000            add byte ptr ds:[eax],al
0041EAA4    0000            add byte ptr ds:[eax],al
0041EAA6    0000            add byte ptr ds:[eax],al
0041EAA8    0000            add byte ptr ds:[eax],al
0041EAAA    0000            add byte ptr ds:[eax],al
0041EAAC    0000            add byte ptr ds:[eax],al
0041EAAE    0000            add byte ptr ds:[eax],al
0041EAB0    0000            add byte ptr ds:[eax],al
0041EAB2    0000            add byte ptr ds:[eax],al
0041EAB4    0000            add byte ptr ds:[eax],al
0041EAB6    0000            add byte ptr ds:[eax],al
0041EAB8    0000            add byte ptr ds:[eax],al
0041EABA    0000            add byte ptr ds:[eax],al
0041EABC    0000            add byte ptr ds:[eax],al
0041EABE    0000            add byte ptr ds:[eax],al
0041EAC0    0000            add byte ptr ds:[eax],al
0041EAC2    0000            add byte ptr ds:[eax],al
0041EAC4    0000            add byte ptr ds:[eax],al
0041EAC6    0000            add byte ptr ds:[eax],al
0041EAC8    0000            add byte ptr ds:[eax],al
0041EACA    0000            add byte ptr ds:[eax],al
0041EACC    0000            add byte ptr ds:[eax],al
0041EACE    0000            add byte ptr ds:[eax],al
0041EAD0    0000            add byte ptr ds:[eax],al
0041EAD2    0000            add byte ptr ds:[eax],al
0041EAD4    0000            add byte ptr ds:[eax],al
0041EAD6    0000            add byte ptr ds:[eax],al
0041EAD8    0000            add byte ptr ds:[eax],al
0041EADA    0000            add byte ptr ds:[eax],al
0041EADC    0000            add byte ptr ds:[eax],al
0041EADE    0000            add byte ptr ds:[eax],al
0041EAE0    0000            add byte ptr ds:[eax],al
0041EAE2    0000            add byte ptr ds:[eax],al
0041EAE4    0000            add byte ptr ds:[eax],al
0041EAE6    0000            add byte ptr ds:[eax],al
0041EAE8    0000            add byte ptr ds:[eax],al
0041EAEA    0000            add byte ptr ds:[eax],al
0041EAEC    0000            add byte ptr ds:[eax],al
0041EAEE    0000            add byte ptr ds:[eax],al
0041EAF0    0000            add byte ptr ds:[eax],al
0041EAF2    0000            add byte ptr ds:[eax],al
0041EAF4    0000            add byte ptr ds:[eax],al
0041EAF6    0000            add byte ptr ds:[eax],al
0041EAF8    0000            add byte ptr ds:[eax],al
0041EAFA    0000            add byte ptr ds:[eax],al
0041EAFC    0000            add byte ptr ds:[eax],al
0041EAFE    0000            add byte ptr ds:[eax],al
0041EB00    0000            add byte ptr ds:[eax],al
0041EB02    0000            add byte ptr ds:[eax],al
0041EB04    0000            add byte ptr ds:[eax],al
0041EB06    0000            add byte ptr ds:[eax],al
0041EB08    0000            add byte ptr ds:[eax],al
0041EB0A    0000            add byte ptr ds:[eax],al
0041EB0C    0000            add byte ptr ds:[eax],al
0041EB0E    0000            add byte ptr ds:[eax],al
0041EB10    0000            add byte ptr ds:[eax],al
0041EB12    0000            add byte ptr ds:[eax],al
0041EB14    0000            add byte ptr ds:[eax],al
0041EB16    0000            add byte ptr ds:[eax],al
0041EB18    0000            add byte ptr ds:[eax],al
0041EB1A    0000            add byte ptr ds:[eax],al
0041EB1C    0000            add byte ptr ds:[eax],al
0041EB1E    0000            add byte ptr ds:[eax],al
0041EB20    0000            add byte ptr ds:[eax],al
0041EB22    0000            add byte ptr ds:[eax],al
0041EB24    0000            add byte ptr ds:[eax],al
0041EB26    0000            add byte ptr ds:[eax],al
0041EB28    0000            add byte ptr ds:[eax],al
0041EB2A    0000            add byte ptr ds:[eax],al
0041EB2C    0000            add byte ptr ds:[eax],al
0041EB2E    0000            add byte ptr ds:[eax],al
0041EB30    0000            add byte ptr ds:[eax],al
0041EB32    0000            add byte ptr ds:[eax],al
0041EB34    0000            add byte ptr ds:[eax],al
0041EB36    0000            add byte ptr ds:[eax],al
0041EB38    0000            add byte ptr ds:[eax],al
0041EB3A    0000            add byte ptr ds:[eax],al
0041EB3C    0000            add byte ptr ds:[eax],al
0041EB3E    0000            add byte ptr ds:[eax],al
0041EB40    0000            add byte ptr ds:[eax],al
0041EB42    0000            add byte ptr ds:[eax],al
0041EB44    0000            add byte ptr ds:[eax],al
0041EB46    0000            add byte ptr ds:[eax],al
0041EB48    0000            add byte ptr ds:[eax],al
0041EB4A    0000            add byte ptr ds:[eax],al
0041EB4C    0000            add byte ptr ds:[eax],al
0041EB4E    0000            add byte ptr ds:[eax],al
0041EB50    0000            add byte ptr ds:[eax],al
0041EB52    0000            add byte ptr ds:[eax],al
0041EB54    0000            add byte ptr ds:[eax],al
0041EB56    0000            add byte ptr ds:[eax],al
0041EB58    0000            add byte ptr ds:[eax],al
0041EB5A    0000            add byte ptr ds:[eax],al
0041EB5C    0000            add byte ptr ds:[eax],al
0041EB5E    0000            add byte ptr ds:[eax],al
0041EB60    0000            add byte ptr ds:[eax],al
0041EB62    0000            add byte ptr ds:[eax],al
0041EB64    0000            add byte ptr ds:[eax],al
0041EB66    0000            add byte ptr ds:[eax],al
0041EB68    0000            add byte ptr ds:[eax],al
0041EB6A    0000            add byte ptr ds:[eax],al
0041EB6C    0000            add byte ptr ds:[eax],al
0041EB6E    0000            add byte ptr ds:[eax],al
0041EB70    0000            add byte ptr ds:[eax],al
0041EB72    0000            add byte ptr ds:[eax],al
0041EB74    0000            add byte ptr ds:[eax],al
0041EB76    0000            add byte ptr ds:[eax],al
0041EB78    0000            add byte ptr ds:[eax],al
0041EB7A    0000            add byte ptr ds:[eax],al
0041EB7C    0000            add byte ptr ds:[eax],al
0041EB7E    0000            add byte ptr ds:[eax],al
0041EB80    0000            add byte ptr ds:[eax],al
0041EB82    0000            add byte ptr ds:[eax],al
0041EB84    0000            add byte ptr ds:[eax],al
0041EB86    0000            add byte ptr ds:[eax],al
0041EB88    0000            add byte ptr ds:[eax],al
0041EB8A    0000            add byte ptr ds:[eax],al
0041EB8C    0000            add byte ptr ds:[eax],al
0041EB8E    0000            add byte ptr ds:[eax],al
0041EB90    0000            add byte ptr ds:[eax],al
0041EB92    0000            add byte ptr ds:[eax],al
0041EB94    0000            add byte ptr ds:[eax],al
0041EB96    0000            add byte ptr ds:[eax],al
0041EB98    0000            add byte ptr ds:[eax],al
0041EB9A    0000            add byte ptr ds:[eax],al
0041EB9C    0000            add byte ptr ds:[eax],al
0041EB9E    0000            add byte ptr ds:[eax],al
0041EBA0    0000            add byte ptr ds:[eax],al
0041EBA2    0000            add byte ptr ds:[eax],al
0041EBA4    0000            add byte ptr ds:[eax],al
0041EBA6    0000            add byte ptr ds:[eax],al
0041EBA8    0000            add byte ptr ds:[eax],al
0041EBAA    0000            add byte ptr ds:[eax],al
0041EBAC    0000            add byte ptr ds:[eax],al
0041EBAE    0000            add byte ptr ds:[eax],al
0041EBB0    0000            add byte ptr ds:[eax],al
0041EBB2    0000            add byte ptr ds:[eax],al
0041EBB4    0000            add byte ptr ds:[eax],al
0041EBB6    0000            add byte ptr ds:[eax],al
0041EBB8    0000            add byte ptr ds:[eax],al
0041EBBA    0000            add byte ptr ds:[eax],al
0041EBBC    0000            add byte ptr ds:[eax],al
0041EBBE    0000            add byte ptr ds:[eax],al
0041EBC0    0000            add byte ptr ds:[eax],al
0041EBC2    0000            add byte ptr ds:[eax],al
0041EBC4    0000            add byte ptr ds:[eax],al
0041EBC6    0000            add byte ptr ds:[eax],al
0041EBC8    0000            add byte ptr ds:[eax],al
0041EBCA    0000            add byte ptr ds:[eax],al
0041EBCC    0000            add byte ptr ds:[eax],al
0041EBCE    0000            add byte ptr ds:[eax],al
0041EBD0    0000            add byte ptr ds:[eax],al
0041EBD2    0000            add byte ptr ds:[eax],al
0041EBD4    0000            add byte ptr ds:[eax],al
0041EBD6    0000            add byte ptr ds:[eax],al
0041EBD8    0000            add byte ptr ds:[eax],al
0041EBDA    0000            add byte ptr ds:[eax],al
0041EBDC    0000            add byte ptr ds:[eax],al
0041EBDE    0000            add byte ptr ds:[eax],al
0041EBE0    0000            add byte ptr ds:[eax],al
0041EBE2    0000            add byte ptr ds:[eax],al
0041EBE4    0000            add byte ptr ds:[eax],al
0041EBE6    0000            add byte ptr ds:[eax],al
0041EBE8    0000            add byte ptr ds:[eax],al
0041EBEA    0000            add byte ptr ds:[eax],al
0041EBEC    0000            add byte ptr ds:[eax],al
0041EBEE    0000            add byte ptr ds:[eax],al
0041EBF0    0000            add byte ptr ds:[eax],al
0041EBF2    0000            add byte ptr ds:[eax],al
0041EBF4    0000            add byte ptr ds:[eax],al
0041EBF6    0000            add byte ptr ds:[eax],al
0041EBF8    0000            add byte ptr ds:[eax],al
0041EBFA    0000            add byte ptr ds:[eax],al
0041EBFC    0000            add byte ptr ds:[eax],al
0041EBFE    0000            add byte ptr ds:[eax],al
0041EC00    0000            add byte ptr ds:[eax],al
0041EC02    0000            add byte ptr ds:[eax],al
0041EC04    0000            add byte ptr ds:[eax],al
0041EC06    0000            add byte ptr ds:[eax],al
0041EC08    0000            add byte ptr ds:[eax],al
0041EC0A    0000            add byte ptr ds:[eax],al
0041EC0C    0000            add byte ptr ds:[eax],al
0041EC0E    0000            add byte ptr ds:[eax],al
0041EC10    0000            add byte ptr ds:[eax],al
0041EC12    0000            add byte ptr ds:[eax],al
0041EC14    0000            add byte ptr ds:[eax],al
0041EC16    0000            add byte ptr ds:[eax],al
0041EC18    0000            add byte ptr ds:[eax],al
0041EC1A    0000            add byte ptr ds:[eax],al
0041EC1C    0000            add byte ptr ds:[eax],al
0041EC1E    0000            add byte ptr ds:[eax],al
0041EC20    0000            add byte ptr ds:[eax],al
0041EC22    0000            add byte ptr ds:[eax],al
0041EC24    0000            add byte ptr ds:[eax],al
0041EC26    0000            add byte ptr ds:[eax],al
0041EC28    0000            add byte ptr ds:[eax],al
0041EC2A    0000            add byte ptr ds:[eax],al
0041EC2C    0000            add byte ptr ds:[eax],al
0041EC2E    0000            add byte ptr ds:[eax],al
0041EC30    0000            add byte ptr ds:[eax],al
0041EC32    0000            add byte ptr ds:[eax],al
0041EC34    0000            add byte ptr ds:[eax],al
0041EC36    0000            add byte ptr ds:[eax],al
0041EC38    0000            add byte ptr ds:[eax],al
0041EC3A    0000            add byte ptr ds:[eax],al
0041EC3C    0000            add byte ptr ds:[eax],al
0041EC3E    0000            add byte ptr ds:[eax],al
0041EC40    0000            add byte ptr ds:[eax],al
0041EC42    0000            add byte ptr ds:[eax],al
0041EC44    0000            add byte ptr ds:[eax],al
0041EC46    0000            add byte ptr ds:[eax],al
0041EC48    0000            add byte ptr ds:[eax],al
0041EC4A    0000            add byte ptr ds:[eax],al
0041EC4C    0000            add byte ptr ds:[eax],al
0041EC4E    0000            add byte ptr ds:[eax],al
0041EC50    0000            add byte ptr ds:[eax],al
0041EC52    0000            add byte ptr ds:[eax],al
0041EC54    0000            add byte ptr ds:[eax],al
0041EC56    0000            add byte ptr ds:[eax],al
0041EC58    0000            add byte ptr ds:[eax],al
0041EC5A    0000            add byte ptr ds:[eax],al
0041EC5C    0000            add byte ptr ds:[eax],al
0041EC5E    0000            add byte ptr ds:[eax],al
0041EC60    0000            add byte ptr ds:[eax],al
0041EC62    0000            add byte ptr ds:[eax],al
0041EC64    0000            add byte ptr ds:[eax],al
0041EC66    0000            add byte ptr ds:[eax],al
0041EC68    0000            add byte ptr ds:[eax],al
0041EC6A    0000            add byte ptr ds:[eax],al
0041EC6C    0000            add byte ptr ds:[eax],al
0041EC6E    0000            add byte ptr ds:[eax],al
0041EC70    0000            add byte ptr ds:[eax],al
0041EC72    0000            add byte ptr ds:[eax],al
0041EC74    0000            add byte ptr ds:[eax],al
0041EC76    0000            add byte ptr ds:[eax],al
0041EC78    0000            add byte ptr ds:[eax],al
0041EC7A    0000            add byte ptr ds:[eax],al
0041EC7C    0000            add byte ptr ds:[eax],al
0041EC7E    0000            add byte ptr ds:[eax],al
0041EC80    0000            add byte ptr ds:[eax],al
0041EC82    0000            add byte ptr ds:[eax],al
0041EC84    0000            add byte ptr ds:[eax],al
0041EC86    0000            add byte ptr ds:[eax],al
0041EC88    0000            add byte ptr ds:[eax],al
0041EC8A    0000            add byte ptr ds:[eax],al
0041EC8C    0000            add byte ptr ds:[eax],al
0041EC8E    0000            add byte ptr ds:[eax],al
0041EC90    0000            add byte ptr ds:[eax],al
0041EC92    0000            add byte ptr ds:[eax],al
0041EC94    0000            add byte ptr ds:[eax],al
0041EC96    0000            add byte ptr ds:[eax],al
0041EC98    0000            add byte ptr ds:[eax],al
0041EC9A    0000            add byte ptr ds:[eax],al
0041EC9C    0000            add byte ptr ds:[eax],al
0041EC9E    0000            add byte ptr ds:[eax],al
0041ECA0    0000            add byte ptr ds:[eax],al
0041ECA2    0000            add byte ptr ds:[eax],al
0041ECA4    0000            add byte ptr ds:[eax],al
0041ECA6    0000            add byte ptr ds:[eax],al
0041ECA8    0000            add byte ptr ds:[eax],al
0041ECAA    0000            add byte ptr ds:[eax],al
0041ECAC    0000            add byte ptr ds:[eax],al
0041ECAE    0000            add byte ptr ds:[eax],al
0041ECB0    0000            add byte ptr ds:[eax],al
0041ECB2    0000            add byte ptr ds:[eax],al
0041ECB4    0000            add byte ptr ds:[eax],al
0041ECB6    0000            add byte ptr ds:[eax],al
0041ECB8    0000            add byte ptr ds:[eax],al
0041ECBA    0000            add byte ptr ds:[eax],al
0041ECBC    0000            add byte ptr ds:[eax],al
0041ECBE    0000            add byte ptr ds:[eax],al
0041ECC0    0000            add byte ptr ds:[eax],al
0041ECC2    0000            add byte ptr ds:[eax],al
0041ECC4    0000            add byte ptr ds:[eax],al
0041ECC6    0000            add byte ptr ds:[eax],al
0041ECC8    0000            add byte ptr ds:[eax],al
0041ECCA    0000            add byte ptr ds:[eax],al
0041ECCC    0000            add byte ptr ds:[eax],al
0041ECCE    0000            add byte ptr ds:[eax],al
0041ECD0    0000            add byte ptr ds:[eax],al
0041ECD2    0000            add byte ptr ds:[eax],al
0041ECD4    0000            add byte ptr ds:[eax],al
0041ECD6    0000            add byte ptr ds:[eax],al
0041ECD8    0000            add byte ptr ds:[eax],al
0041ECDA    0000            add byte ptr ds:[eax],al
0041ECDC    0000            add byte ptr ds:[eax],al
0041ECDE    0000            add byte ptr ds:[eax],al
0041ECE0    0000            add byte ptr ds:[eax],al
0041ECE2    0000            add byte ptr ds:[eax],al
0041ECE4    0000            add byte ptr ds:[eax],al
0041ECE6    0000            add byte ptr ds:[eax],al
0041ECE8    0000            add byte ptr ds:[eax],al
0041ECEA    0000            add byte ptr ds:[eax],al
0041ECEC    0000            add byte ptr ds:[eax],al
0041ECEE    0000            add byte ptr ds:[eax],al
0041ECF0    0000            add byte ptr ds:[eax],al
0041ECF2    0000            add byte ptr ds:[eax],al
0041ECF4    0000            add byte ptr ds:[eax],al
0041ECF6    0000            add byte ptr ds:[eax],al
0041ECF8    0000            add byte ptr ds:[eax],al
0041ECFA    0000            add byte ptr ds:[eax],al
0041ECFC    0000            add byte ptr ds:[eax],al
0041ECFE    0000            add byte ptr ds:[eax],al
0041ED00    0000            add byte ptr ds:[eax],al
0041ED02    0000            add byte ptr ds:[eax],al
0041ED04    0000            add byte ptr ds:[eax],al
0041ED06    0000            add byte ptr ds:[eax],al
0041ED08    0000            add byte ptr ds:[eax],al
0041ED0A    0000            add byte ptr ds:[eax],al
0041ED0C    0000            add byte ptr ds:[eax],al
0041ED0E    0000            add byte ptr ds:[eax],al
0041ED10    0000            add byte ptr ds:[eax],al
0041ED12    0000            add byte ptr ds:[eax],al
0041ED14    0000            add byte ptr ds:[eax],al
0041ED16    0000            add byte ptr ds:[eax],al
0041ED18    0000            add byte ptr ds:[eax],al
0041ED1A    0000            add byte ptr ds:[eax],al
0041ED1C    0000            add byte ptr ds:[eax],al
0041ED1E    0000            add byte ptr ds:[eax],al
0041ED20    0000            add byte ptr ds:[eax],al
0041ED22    0000            add byte ptr ds:[eax],al
0041ED24    0000            add byte ptr ds:[eax],al
0041ED26    0000            add byte ptr ds:[eax],al
0041ED28    0000            add byte ptr ds:[eax],al
0041ED2A    0000            add byte ptr ds:[eax],al
0041ED2C    0000            add byte ptr ds:[eax],al
0041ED2E    0000            add byte ptr ds:[eax],al
0041ED30    0000            add byte ptr ds:[eax],al
0041ED32    0000            add byte ptr ds:[eax],al
0041ED34    0000            add byte ptr ds:[eax],al
0041ED36    0000            add byte ptr ds:[eax],al
0041ED38    0000            add byte ptr ds:[eax],al
0041ED3A    0000            add byte ptr ds:[eax],al
0041ED3C    0000            add byte ptr ds:[eax],al
0041ED3E    0000            add byte ptr ds:[eax],al
0041ED40    0000            add byte ptr ds:[eax],al
0041ED42    0000            add byte ptr ds:[eax],al
0041ED44    0000            add byte ptr ds:[eax],al
0041ED46    0000            add byte ptr ds:[eax],al
0041ED48    0000            add byte ptr ds:[eax],al
0041ED4A    0000            add byte ptr ds:[eax],al
0041ED4C    0000            add byte ptr ds:[eax],al
0041ED4E    0000            add byte ptr ds:[eax],al
0041ED50    0000            add byte ptr ds:[eax],al
0041ED52    0000            add byte ptr ds:[eax],al
0041ED54    0000            add byte ptr ds:[eax],al
0041ED56    0000            add byte ptr ds:[eax],al
0041ED58    0000            add byte ptr ds:[eax],al
0041ED5A    0000            add byte ptr ds:[eax],al
0041ED5C    0000            add byte ptr ds:[eax],al
0041ED5E    0000            add byte ptr ds:[eax],al
0041ED60    0000            add byte ptr ds:[eax],al
0041ED62    0000            add byte ptr ds:[eax],al
0041ED64    0000            add byte ptr ds:[eax],al
0041ED66    0000            add byte ptr ds:[eax],al
0041ED68    0000            add byte ptr ds:[eax],al
0041ED6A    0000            add byte ptr ds:[eax],al
0041ED6C    0000            add byte ptr ds:[eax],al
0041ED6E    0000            add byte ptr ds:[eax],al
0041ED70    0000            add byte ptr ds:[eax],al
0041ED72    0000            add byte ptr ds:[eax],al
0041ED74    0000            add byte ptr ds:[eax],al
0041ED76    0000            add byte ptr ds:[eax],al
0041ED78    0000            add byte ptr ds:[eax],al
0041ED7A    0000            add byte ptr ds:[eax],al
0041ED7C    0000            add byte ptr ds:[eax],al
0041ED7E    0000            add byte ptr ds:[eax],al
0041ED80    0000            add byte ptr ds:[eax],al
0041ED82    0000            add byte ptr ds:[eax],al
0041ED84    0000            add byte ptr ds:[eax],al
0041ED86    0000            add byte ptr ds:[eax],al
0041ED88    0000            add byte ptr ds:[eax],al
0041ED8A    0000            add byte ptr ds:[eax],al
0041ED8C    0000            add byte ptr ds:[eax],al
0041ED8E    0000            add byte ptr ds:[eax],al
0041ED90    0000            add byte ptr ds:[eax],al
0041ED92    0000            add byte ptr ds:[eax],al
0041ED94    0000            add byte ptr ds:[eax],al
0041ED96    0000            add byte ptr ds:[eax],al
0041ED98    0000            add byte ptr ds:[eax],al
0041ED9A    0000            add byte ptr ds:[eax],al
0041ED9C    0000            add byte ptr ds:[eax],al
0041ED9E    0000            add byte ptr ds:[eax],al
0041EDA0    0000            add byte ptr ds:[eax],al
0041EDA2    0000            add byte ptr ds:[eax],al
0041EDA4    0000            add byte ptr ds:[eax],al
0041EDA6    0000            add byte ptr ds:[eax],al
0041EDA8    0000            add byte ptr ds:[eax],al
0041EDAA    0000            add byte ptr ds:[eax],al
0041EDAC    0000            add byte ptr ds:[eax],al
0041EDAE    0000            add byte ptr ds:[eax],al
0041EDB0    0000            add byte ptr ds:[eax],al
0041EDB2    0000            add byte ptr ds:[eax],al
0041EDB4    0000            add byte ptr ds:[eax],al
0041EDB6    0000            add byte ptr ds:[eax],al
0041EDB8    0000            add byte ptr ds:[eax],al
0041EDBA    0000            add byte ptr ds:[eax],al
0041EDBC    0000            add byte ptr ds:[eax],al
0041EDBE    0000            add byte ptr ds:[eax],al
0041EDC0    0000            add byte ptr ds:[eax],al
0041EDC2    0000            add byte ptr ds:[eax],al
0041EDC4    0000            add byte ptr ds:[eax],al
0041EDC6    0000            add byte ptr ds:[eax],al
0041EDC8    0000            add byte ptr ds:[eax],al
0041EDCA    0000            add byte ptr ds:[eax],al
0041EDCC    0000            add byte ptr ds:[eax],al
0041EDCE    0000            add byte ptr ds:[eax],al
0041EDD0    0000            add byte ptr ds:[eax],al
0041EDD2    0000            add byte ptr ds:[eax],al
0041EDD4    0000            add byte ptr ds:[eax],al
0041EDD6    0000            add byte ptr ds:[eax],al
0041EDD8    0000            add byte ptr ds:[eax],al
0041EDDA    0000            add byte ptr ds:[eax],al
0041EDDC    0000            add byte ptr ds:[eax],al
0041EDDE    0000            add byte ptr ds:[eax],al
0041EDE0    0000            add byte ptr ds:[eax],al
0041EDE2    0000            add byte ptr ds:[eax],al
0041EDE4    0000            add byte ptr ds:[eax],al
0041EDE6    0000            add byte ptr ds:[eax],al
0041EDE8    0000            add byte ptr ds:[eax],al
0041EDEA    0000            add byte ptr ds:[eax],al
0041EDEC    0000            add byte ptr ds:[eax],al
0041EDEE    0000            add byte ptr ds:[eax],al
0041EDF0    0000            add byte ptr ds:[eax],al
0041EDF2    0000            add byte ptr ds:[eax],al
0041EDF4    0000            add byte ptr ds:[eax],al
0041EDF6    0000            add byte ptr ds:[eax],al
0041EDF8    0000            add byte ptr ds:[eax],al
0041EDFA    0000            add byte ptr ds:[eax],al
0041EDFC    0000            add byte ptr ds:[eax],al
0041EDFE    0000            add byte ptr ds:[eax],al
0041EE00    0000            add byte ptr ds:[eax],al
0041EE02    0000            add byte ptr ds:[eax],al
0041EE04    0000            add byte ptr ds:[eax],al
0041EE06    0000            add byte ptr ds:[eax],al
0041EE08    0000            add byte ptr ds:[eax],al
0041EE0A    0000            add byte ptr ds:[eax],al
0041EE0C    0000            add byte ptr ds:[eax],al
0041EE0E    0000            add byte ptr ds:[eax],al
0041EE10    0000            add byte ptr ds:[eax],al
0041EE12    0000            add byte ptr ds:[eax],al
0041EE14    0000            add byte ptr ds:[eax],al
0041EE16    0000            add byte ptr ds:[eax],al
0041EE18    0000            add byte ptr ds:[eax],al
0041EE1A    0000            add byte ptr ds:[eax],al
0041EE1C    0000            add byte ptr ds:[eax],al
0041EE1E    0000            add byte ptr ds:[eax],al
0041EE20    0000            add byte ptr ds:[eax],al
0041EE22    0000            add byte ptr ds:[eax],al
0041EE24    0000            add byte ptr ds:[eax],al
0041EE26    0000            add byte ptr ds:[eax],al
0041EE28    0000            add byte ptr ds:[eax],al
0041EE2A    0000            add byte ptr ds:[eax],al
0041EE2C    0000            add byte ptr ds:[eax],al
0041EE2E    0000            add byte ptr ds:[eax],al
0041EE30    0000            add byte ptr ds:[eax],al
0041EE32    0000            add byte ptr ds:[eax],al
0041EE34    0000            add byte ptr ds:[eax],al
0041EE36    0000            add byte ptr ds:[eax],al
0041EE38    0000            add byte ptr ds:[eax],al
0041EE3A    0000            add byte ptr ds:[eax],al
0041EE3C    0000            add byte ptr ds:[eax],al
0041EE3E    0000            add byte ptr ds:[eax],al
0041EE40    0000            add byte ptr ds:[eax],al
0041EE42    0000            add byte ptr ds:[eax],al
0041EE44    0000            add byte ptr ds:[eax],al
0041EE46    0000            add byte ptr ds:[eax],al
0041EE48    0000            add byte ptr ds:[eax],al
0041EE4A    0000            add byte ptr ds:[eax],al
0041EE4C    0000            add byte ptr ds:[eax],al
0041EE4E    0000            add byte ptr ds:[eax],al
0041EE50    0000            add byte ptr ds:[eax],al
0041EE52    0000            add byte ptr ds:[eax],al
0041EE54    0000            add byte ptr ds:[eax],al
0041EE56    0000            add byte ptr ds:[eax],al
0041EE58    0000            add byte ptr ds:[eax],al
0041EE5A    0000            add byte ptr ds:[eax],al
0041EE5C    0000            add byte ptr ds:[eax],al
0041EE5E    0000            add byte ptr ds:[eax],al
0041EE60    0000            add byte ptr ds:[eax],al
0041EE62    0000            add byte ptr ds:[eax],al
0041EE64    0000            add byte ptr ds:[eax],al
0041EE66    0000            add byte ptr ds:[eax],al
0041EE68    0000            add byte ptr ds:[eax],al
0041EE6A    0000            add byte ptr ds:[eax],al
0041EE6C    0000            add byte ptr ds:[eax],al
0041EE6E    0000            add byte ptr ds:[eax],al
0041EE70    0000            add byte ptr ds:[eax],al
0041EE72    0000            add byte ptr ds:[eax],al
0041EE74    0000            add byte ptr ds:[eax],al
0041EE76    0000            add byte ptr ds:[eax],al
0041EE78    0000            add byte ptr ds:[eax],al
0041EE7A    0000            add byte ptr ds:[eax],al
0041EE7C    0000            add byte ptr ds:[eax],al
0041EE7E    0000            add byte ptr ds:[eax],al
0041EE80    0000            add byte ptr ds:[eax],al
0041EE82    0000            add byte ptr ds:[eax],al
0041EE84    0000            add byte ptr ds:[eax],al
0041EE86    0000            add byte ptr ds:[eax],al
0041EE88    0000            add byte ptr ds:[eax],al
0041EE8A    0000            add byte ptr ds:[eax],al
0041EE8C    0000            add byte ptr ds:[eax],al
0041EE8E    0000            add byte ptr ds:[eax],al
0041EE90    0000            add byte ptr ds:[eax],al
0041EE92    0000            add byte ptr ds:[eax],al
0041EE94    0000            add byte ptr ds:[eax],al
0041EE96    0000            add byte ptr ds:[eax],al
0041EE98    0000            add byte ptr ds:[eax],al
0041EE9A    0000            add byte ptr ds:[eax],al
0041EE9C    0000            add byte ptr ds:[eax],al
0041EE9E    0000            add byte ptr ds:[eax],al
0041EEA0    0000            add byte ptr ds:[eax],al
0041EEA2    0000            add byte ptr ds:[eax],al
0041EEA4    0000            add byte ptr ds:[eax],al
0041EEA6    0000            add byte ptr ds:[eax],al
0041EEA8    0000            add byte ptr ds:[eax],al
0041EEAA    0000            add byte ptr ds:[eax],al
0041EEAC    0000            add byte ptr ds:[eax],al
0041EEAE    0000            add byte ptr ds:[eax],al
0041EEB0    0000            add byte ptr ds:[eax],al
0041EEB2    0000            add byte ptr ds:[eax],al
0041EEB4    0000            add byte ptr ds:[eax],al
0041EEB6    0000            add byte ptr ds:[eax],al
0041EEB8    0000            add byte ptr ds:[eax],al
0041EEBA    0000            add byte ptr ds:[eax],al
0041EEBC    0000            add byte ptr ds:[eax],al
0041EEBE    0000            add byte ptr ds:[eax],al
0041EEC0    0000            add byte ptr ds:[eax],al
0041EEC2    0000            add byte ptr ds:[eax],al
0041EEC4    0000            add byte ptr ds:[eax],al
0041EEC6    0000            add byte ptr ds:[eax],al
0041EEC8    0000            add byte ptr ds:[eax],al
0041EECA    0000            add byte ptr ds:[eax],al
0041EECC    0000            add byte ptr ds:[eax],al
0041EECE    0000            add byte ptr ds:[eax],al
0041EED0    0000            add byte ptr ds:[eax],al
0041EED2    0000            add byte ptr ds:[eax],al
0041EED4    0000            add byte ptr ds:[eax],al
0041EED6    0000            add byte ptr ds:[eax],al
0041EED8    0000            add byte ptr ds:[eax],al
0041EEDA    0000            add byte ptr ds:[eax],al
0041EEDC    0000            add byte ptr ds:[eax],al
0041EEDE    0000            add byte ptr ds:[eax],al
0041EEE0    0000            add byte ptr ds:[eax],al
0041EEE2    0000            add byte ptr ds:[eax],al
0041EEE4    0000            add byte ptr ds:[eax],al
0041EEE6    0000            add byte ptr ds:[eax],al
0041EEE8    0000            add byte ptr ds:[eax],al
0041EEEA    0000            add byte ptr ds:[eax],al
0041EEEC    0000            add byte ptr ds:[eax],al
0041EEEE    0000            add byte ptr ds:[eax],al
0041EEF0    0000            add byte ptr ds:[eax],al
0041EEF2    0000            add byte ptr ds:[eax],al
0041EEF4    0000            add byte ptr ds:[eax],al
0041EEF6    0000            add byte ptr ds:[eax],al
0041EEF8    0000            add byte ptr ds:[eax],al
0041EEFA    0000            add byte ptr ds:[eax],al
0041EEFC    0000            add byte ptr ds:[eax],al
0041EEFE    0000            add byte ptr ds:[eax],al
0041EF00    0000            add byte ptr ds:[eax],al
0041EF02    0000            add byte ptr ds:[eax],al
0041EF04    0000            add byte ptr ds:[eax],al
0041EF06    0000            add byte ptr ds:[eax],al
0041EF08    0000            add byte ptr ds:[eax],al
0041EF0A    0000            add byte ptr ds:[eax],al
0041EF0C    0000            add byte ptr ds:[eax],al
0041EF0E    0000            add byte ptr ds:[eax],al
0041EF10    0000            add byte ptr ds:[eax],al
0041EF12    0000            add byte ptr ds:[eax],al
0041EF14    0000            add byte ptr ds:[eax],al
0041EF16    0000            add byte ptr ds:[eax],al
0041EF18    0000            add byte ptr ds:[eax],al
0041EF1A    0000            add byte ptr ds:[eax],al
0041EF1C    0000            add byte ptr ds:[eax],al
0041EF1E    0000            add byte ptr ds:[eax],al
0041EF20    0000            add byte ptr ds:[eax],al
0041EF22    0000            add byte ptr ds:[eax],al
0041EF24    0000            add byte ptr ds:[eax],al
0041EF26    0000            add byte ptr ds:[eax],al
0041EF28    0000            add byte ptr ds:[eax],al
0041EF2A    0000            add byte ptr ds:[eax],al
0041EF2C    0000            add byte ptr ds:[eax],al
0041EF2E    0000            add byte ptr ds:[eax],al
0041EF30    0000            add byte ptr ds:[eax],al
0041EF32    0000            add byte ptr ds:[eax],al
0041EF34    0000            add byte ptr ds:[eax],al
0041EF36    0000            add byte ptr ds:[eax],al
0041EF38    0000            add byte ptr ds:[eax],al
0041EF3A    0000            add byte ptr ds:[eax],al
0041EF3C    0000            add byte ptr ds:[eax],al
0041EF3E    0000            add byte ptr ds:[eax],al
0041EF40    0000            add byte ptr ds:[eax],al
0041EF42    0000            add byte ptr ds:[eax],al
0041EF44    0000            add byte ptr ds:[eax],al
0041EF46    0000            add byte ptr ds:[eax],al
0041EF48    0000            add byte ptr ds:[eax],al
0041EF4A    0000            add byte ptr ds:[eax],al
0041EF4C    0000            add byte ptr ds:[eax],al
0041EF4E    0000            add byte ptr ds:[eax],al
0041EF50    0000            add byte ptr ds:[eax],al
0041EF52    0000            add byte ptr ds:[eax],al
0041EF54    0000            add byte ptr ds:[eax],al
0041EF56    0000            add byte ptr ds:[eax],al
0041EF58    0000            add byte ptr ds:[eax],al
0041EF5A    0000            add byte ptr ds:[eax],al
0041EF5C    0000            add byte ptr ds:[eax],al
0041EF5E    0000            add byte ptr ds:[eax],al
0041EF60    0000            add byte ptr ds:[eax],al
0041EF62    0000            add byte ptr ds:[eax],al
0041EF64    0000            add byte ptr ds:[eax],al
0041EF66    0000            add byte ptr ds:[eax],al
0041EF68    0000            add byte ptr ds:[eax],al
0041EF6A    0000            add byte ptr ds:[eax],al
0041EF6C    0000            add byte ptr ds:[eax],al
0041EF6E    0000            add byte ptr ds:[eax],al
0041EF70    0000            add byte ptr ds:[eax],al
0041EF72    0000            add byte ptr ds:[eax],al
0041EF74    0000            add byte ptr ds:[eax],al
0041EF76    0000            add byte ptr ds:[eax],al
0041EF78    0000            add byte ptr ds:[eax],al
0041EF7A    0000            add byte ptr ds:[eax],al
0041EF7C    0000            add byte ptr ds:[eax],al
0041EF7E    0000            add byte ptr ds:[eax],al
0041EF80    0000            add byte ptr ds:[eax],al
0041EF82    0000            add byte ptr ds:[eax],al
0041EF84    0000            add byte ptr ds:[eax],al
0041EF86    0000            add byte ptr ds:[eax],al
0041EF88    0000            add byte ptr ds:[eax],al
0041EF8A    0000            add byte ptr ds:[eax],al
0041EF8C    0000            add byte ptr ds:[eax],al
0041EF8E    0000            add byte ptr ds:[eax],al
0041EF90    0000            add byte ptr ds:[eax],al
0041EF92    0000            add byte ptr ds:[eax],al
0041EF94    0000            add byte ptr ds:[eax],al
0041EF96    0000            add byte ptr ds:[eax],al
0041EF98    0000            add byte ptr ds:[eax],al
0041EF9A    0000            add byte ptr ds:[eax],al
0041EF9C    0000            add byte ptr ds:[eax],al
0041EF9E    0000            add byte ptr ds:[eax],al
0041EFA0    0000            add byte ptr ds:[eax],al
0041EFA2    0000            add byte ptr ds:[eax],al
0041EFA4    0000            add byte ptr ds:[eax],al
0041EFA6    0000            add byte ptr ds:[eax],al
0041EFA8    0000            add byte ptr ds:[eax],al
0041EFAA    0000            add byte ptr ds:[eax],al
0041EFAC    0000            add byte ptr ds:[eax],al
0041EFAE    0000            add byte ptr ds:[eax],al
0041EFB0    0000            add byte ptr ds:[eax],al
0041EFB2    0000            add byte ptr ds:[eax],al
0041EFB4    0000            add byte ptr ds:[eax],al
0041EFB6    0000            add byte ptr ds:[eax],al
0041EFB8    0000            add byte ptr ds:[eax],al
0041EFBA    0000            add byte ptr ds:[eax],al
0041EFBC    0000            add byte ptr ds:[eax],al
0041EFBE    0000            add byte ptr ds:[eax],al
0041EFC0    0000            add byte ptr ds:[eax],al
0041EFC2    0000            add byte ptr ds:[eax],al
0041EFC4    0000            add byte ptr ds:[eax],al
0041EFC6    0000            add byte ptr ds:[eax],al
0041EFC8    0000            add byte ptr ds:[eax],al
0041EFCA    0000            add byte ptr ds:[eax],al
0041EFCC    0000            add byte ptr ds:[eax],al
0041EFCE    0000            add byte ptr ds:[eax],al
0041EFD0    0000            add byte ptr ds:[eax],al
0041EFD2    0000            add byte ptr ds:[eax],al
0041EFD4    0000            add byte ptr ds:[eax],al
0041EFD6    0000            add byte ptr ds:[eax],al
0041EFD8    0000            add byte ptr ds:[eax],al
0041EFDA    0000            add byte ptr ds:[eax],al
0041EFDC    0000            add byte ptr ds:[eax],al
0041EFDE    0000            add byte ptr ds:[eax],al
0041EFE0    0000            add byte ptr ds:[eax],al
0041EFE2    0000            add byte ptr ds:[eax],al
0041EFE4    0000            add byte ptr ds:[eax],al
0041EFE6    0000            add byte ptr ds:[eax],al
0041EFE8    0000            add byte ptr ds:[eax],al
0041EFEA    0000            add byte ptr ds:[eax],al
0041EFEC    0000            add byte ptr ds:[eax],al
0041EFEE    0000            add byte ptr ds:[eax],al
0041EFF0    0000            add byte ptr ds:[eax],al
0041EFF2    0000            add byte ptr ds:[eax],al
0041EFF4    0000            add byte ptr ds:[eax],al
0041EFF6    0000            add byte ptr ds:[eax],al
0041EFF8    0000            add byte ptr ds:[eax],al
0041EFFA    0000            add byte ptr ds:[eax],al
0041EFFC    0000            add byte ptr ds:[eax],al
0041EFFE    0000            add byte ptr ds:[eax],al

 
